(dp0
S'procId'
p1
I13
sS'type'
p2
S'process'
p3
sS'op'
p4
S'startMicroDownload'
p5
s.(dp0
S'from'
p1
I13
sS'message'
p2
ccopy_reg
_reconstructor
p3
(cMessage
DownloadRequestMessage
p4
c__builtin__
object
p5
Ntp6
Rp7
(dp8
S'sender'
p9
I13
sS'bb'
p10
I00
sS'receiver'
p11
I0
sS'content'
p12
(dp13
S'segmentFrom'
p14
I170
sS'segmentTo'
p15
I180
sS'segmentDownloadtime'
p16
I2
ssS'num'
p17
I0
sS'messageId'
p18
I17
sS'createdTime'
p19
S'2014-09-01 09:36:08'
p20
sS'property'
p21
NsbsS'op'
p22
S'send'
p23
sS'type'
p24
S'channel'
p25
sS'to'
p26
I0
s.(dp0
S'from'
p1
I13
sS'message'
p2
ccopy_reg
_reconstructor
p3
(cMessage
DownloadRequestMessage
p4
c__builtin__
object
p5
Ntp6
Rp7
(dp8
S'sender'
p9
I13
sS'bb'
p10
I00
sS'receiver'
p11
I1
sS'content'
p12
(dp13
S'segmentFrom'
p14
I20
sS'segmentTo'
p15
I30
sS'segmentDownloadtime'
p16
I2
ssS'num'
p17
I1
sS'messageId'
p18
I2
sS'createdTime'
p19
S'2014-09-01 09:36:09'
p20
sS'property'
p21
NsbsS'op'
p22
S'send'
p23
sS'type'
p24
S'channel'
p25
sS'to'
p26
I1
s.(dp0
S'from'
p1
I13
sS'message'
p2
ccopy_reg
_reconstructor
p3
(cMessage
DownloadRequestMessage
p4
c__builtin__
object
p5
Ntp6
Rp7
(dp8
S'sender'
p9
I13
sS'bb'
p10
I00
sS'receiver'
p11
I2
sS'content'
p12
(dp13
S'segmentFrom'
p14
I230
sS'segmentTo'
p15
I240
sS'segmentDownloadtime'
p16
I2
ssS'num'
p17
I2
sS'messageId'
p18
I23
sS'createdTime'
p19
S'2014-09-01 09:36:09'
p20
sS'property'
p21
NsbsS'op'
p22
S'send'
p23
sS'type'
p24
S'channel'
p25
sS'to'
p26
I2
s.(dp0
S'from'
p1
I13
sS'message'
p2
ccopy_reg
_reconstructor
p3
(cMessage
DownloadRequestMessage
p4
c__builtin__
object
p5
Ntp6
Rp7
(dp8
S'sender'
p9
I13
sS'bb'
p10
I00
sS'receiver'
p11
I3
sS'content'
p12
(dp13
S'segmentFrom'
p14
I120
sS'segmentTo'
p15
I130
sS'segmentDownloadtime'
p16
I2
ssS'num'
p17
I3
sS'messageId'
p18
I12
sS'createdTime'
p19
S'2014-09-01 09:36:09'
p20
sS'property'
p21
NsbsS'op'
p22
S'send'
p23
sS'type'
p24
S'channel'
p25
sS'to'
p26
I3
s.(dp0
S'from'
p1
I13
sS'message'
p2
ccopy_reg
_reconstructor
p3
(cMessage
DownloadRequestMessage
p4
c__builtin__
object
p5
Ntp6
Rp7
(dp8
S'sender'
p9
I13
sS'bb'
p10
I00
sS'receiver'
p11
I4
sS'content'
p12
(dp13
S'segmentFrom'
p14
I60
sS'segmentTo'
p15
I70
sS'segmentDownloadtime'
p16
I2
ssS'num'
p17
I4
sS'messageId'
p18
I6
sS'createdTime'
p19
S'2014-09-01 09:36:10'
p20
sS'property'
p21
NsbsS'op'
p22
S'send'
p23
sS'type'
p24
S'channel'
p25
sS'to'
p26
I4
s.(dp0
S'from'
p1
I0
sS'message'
p2
ccopy_reg
_reconstructor
p3
(cMessage
RequestResponseMessage
p4
c__builtin__
object
p5
Ntp6
Rp7
(dp8
S'status'
p9
I01
sS'sender'
p10
I0
sS'bb'
p11
I00
sS'receiver'
p12
I13
sS'content'
p13
NsS'num'
p14
I0
sS'messageId'
p15
I17
sS'createdTime'
p16
S'2014-09-01 09:36:10'
p17
sS'property'
p18
NsbsS'op'
p19
S'recieve'
p20
sS'type'
p21
S'channel'
p22
sS'to'
p23
I13
s.(dp0
S'from'
p1
I13
sS'message'
p2
ccopy_reg
_reconstructor
p3
(cMessage
DownloadRequestMessage
p4
c__builtin__
object
p5
Ntp6
Rp7
(dp8
S'sender'
p9
I13
sS'bb'
p10
I00
sS'receiver'
p11
I0
sS'content'
p12
(dp13
S'segmentFrom'
p14
I210
sS'segmentTo'
p15
I220
sS'segmentDownloadtime'
p16
I2
ssS'num'
p17
I5
sS'messageId'
p18
I21
sS'createdTime'
p19
S'2014-09-01 09:36:10'
p20
sS'property'
p21
NsbsS'op'
p22
S'send'
p23
sS'type'
p24
S'channel'
p25
sS'to'
p26
I0
s.(dp0
S'from'
p1
I3
sS'message'
p2
ccopy_reg
_reconstructor
p3
(cMessage
RequestResponseMessage
p4
c__builtin__
object
p5
Ntp6
Rp7
(dp8
S'status'
p9
I01
sS'sender'
p10
I3
sS'bb'
p11
I00
sS'receiver'
p12
I13
sS'content'
p13
NsS'num'
p14
I1
sS'messageId'
p15
I12
sS'createdTime'
p16
S'2014-09-01 09:36:10'
p17
sS'property'
p18
NsbsS'op'
p19
S'recieve'
p20
sS'type'
p21
S'channel'
p22
sS'to'
p23
I13
s.(dp0
S'from'
p1
I13
sS'message'
p2
ccopy_reg
_reconstructor
p3
(cMessage
DownloadRequestMessage
p4
c__builtin__
object
p5
Ntp6
Rp7
(dp8
S'sender'
p9
I13
sS'bb'
p10
I00
sS'receiver'
p11
I3
sS'content'
p12
(dp13
S'segmentFrom'
p14
I10
sS'segmentTo'
p15
I20
sS'segmentDownloadtime'
p16
I2
ssS'num'
p17
I6
sS'messageId'
p18
I1
sS'createdTime'
p19
S'2014-09-01 09:36:11'
p20
sS'property'
p21
NsbsS'op'
p22
S'send'
p23
sS'type'
p24
S'channel'
p25
sS'to'
p26
I3
s.(dp0
S'from'
p1
I13
sS'message'
p2
ccopy_reg
_reconstructor
p3
(cMessage
DownloadRequestMessage
p4
c__builtin__
object
p5
Ntp6
Rp7
(dp8
S'sender'
p9
I13
sS'bb'
p10
I00
sS'receiver'
p11
I5
sS'content'
p12
(dp13
S'segmentFrom'
p14
I150
sS'segmentTo'
p15
I160
sS'segmentDownloadtime'
p16
I2
ssS'num'
p17
I7
sS'messageId'
p18
I15
sS'createdTime'
p19
S'2014-09-01 09:36:11'
p20
sS'property'
p21
NsbsS'op'
p22
S'send'
p23
sS'type'
p24
S'channel'
p25
sS'to'
p26
I5
s.(dp0
S'from'
p1
I13
sS'message'
p2
ccopy_reg
_reconstructor
p3
(cMessage
DownloadRequestMessage
p4
c__builtin__
object
p5
Ntp6
Rp7
(dp8
S'sender'
p9
I13
sS'bb'
p10
I00
sS'receiver'
p11
I6
sS'content'
p12
(dp13
S'segmentFrom'
p14
I270
sS'segmentTo'
p15
I280
sS'segmentDownloadtime'
p16
I2
ssS'num'
p17
I8
sS'messageId'
p18
I27
sS'createdTime'
p19
S'2014-09-01 09:36:11'
p20
sS'property'
p21
NsbsS'op'
p22
S'send'
p23
sS'type'
p24
S'channel'
p25
sS'to'
p26
I6
s.(dp0
S'from'
p1
I13
sS'message'
p2
ccopy_reg
_reconstructor
p3
(cMessage
DownloadRequestMessage
p4
c__builtin__
object
p5
Ntp6
Rp7
(dp8
S'sender'
p9
I13
sS'bb'
p10
I00
sS'receiver'
p11
I7
sS'content'
p12
(dp13
S'segmentFrom'
p14
I420
sS'segmentTo'
p15
I430
sS'segmentDownloadtime'
p16
I2
ssS'num'
p17
I9
sS'messageId'
p18
I42
sS'createdTime'
p19
S'2014-09-01 09:36:11'
p20
sS'property'
p21
NsbsS'op'
p22
S'send'
p23
sS'type'
p24
S'channel'
p25
sS'to'
p26
I7
s.(dp0
S'from'
p1
I13
sS'message'
p2
ccopy_reg
_reconstructor
p3
(cMessage
DownloadRequestMessage
p4
c__builtin__
object
p5
Ntp6
Rp7
(dp8
S'sender'
p9
I13
sS'bb'
p10
I00
sS'receiver'
p11
I8
sS'content'
p12
(dp13
S'segmentFrom'
p14
I380
sS'segmentTo'
p15
I390
sS'segmentDownloadtime'
p16
I2
ssS'num'
p17
I10
sS'messageId'
p18
I38
sS'createdTime'
p19
S'2014-09-01 09:36:11'
p20
sS'property'
p21
NsbsS'op'
p22
S'send'
p23
sS'type'
p24
S'channel'
p25
sS'to'
p26
I8
s.(dp0
S'from'
p1
I13
sS'message'
p2
ccopy_reg
_reconstructor
p3
(cMessage
DownloadRequestMessage
p4
c__builtin__
object
p5
Ntp6
Rp7
(dp8
S'sender'
p9
I13
sS'bb'
p10
I00
sS'receiver'
p11
I9
sS'content'
p12
(dp13
S'segmentFrom'
p14
I410
sS'segmentTo'
p15
I420
sS'segmentDownloadtime'
p16
I2
ssS'num'
p17
I11
sS'messageId'
p18
I41
sS'createdTime'
p19
S'2014-09-01 09:36:12'
p20
sS'property'
p21
NsbsS'op'
p22
S'send'
p23
sS'type'
p24
S'channel'
p25
sS'to'
p26
I9
s.(dp0
S'from'
p1
I4
sS'message'
p2
ccopy_reg
_reconstructor
p3
(cMessage
RequestResponseMessage
p4
c__builtin__
object
p5
Ntp6
Rp7
(dp8
S'status'
p9
I01
sS'sender'
p10
I4
sS'bb'
p11
I00
sS'receiver'
p12
I13
sS'content'
p13
NsS'num'
p14
I1
sS'messageId'
p15
I6
sS'createdTime'
p16
S'2014-09-01 09:36:11'
p17
sS'property'
p18
NsbsS'op'
p19
S'recieve'
p20
sS'type'
p21
S'channel'
p22
sS'to'
p23
I13
s.(dp0
S'from'
p1
I13
sS'message'
p2
ccopy_reg
_reconstructor
p3
(cMessage
DownloadRequestMessage
p4
c__builtin__
object
p5
Ntp6
Rp7
(dp8
S'sender'
p9
I13
sS'bb'
p10
I00
sS'receiver'
p11
I4
sS'content'
p12
(dp13
S'segmentFrom'
p14
I400
sS'segmentTo'
p15
I410
sS'segmentDownloadtime'
p16
I2
ssS'num'
p17
I12
sS'messageId'
p18
I40
sS'createdTime'
p19
S'2014-09-01 09:36:12'
p20
sS'property'
p21
NsbsS'op'
p22
S'send'
p23
sS'type'
p24
S'channel'
p25
sS'to'
p26
I4
s.(dp0
S'from'
p1
I1
sS'message'
p2
ccopy_reg
_reconstructor
p3
(cMessage
RequestResponseMessage
p4
c__builtin__
object
p5
Ntp6
Rp7
(dp8
S'status'
p9
I01
sS'sender'
p10
I1
sS'bb'
p11
I00
sS'receiver'
p12
I13
sS'content'
p13
NsS'num'
p14
I1
sS'messageId'
p15
I2
sS'createdTime'
p16
S'2014-09-01 09:36:11'
p17
sS'property'
p18
NsbsS'op'
p19
S'recieve'
p20
sS'type'
p21
S'channel'
p22
sS'to'
p23
I13
s.(dp0
S'from'
p1
I2
sS'message'
p2
ccopy_reg
_reconstructor
p3
(cMessage
RequestResponseMessage
p4
c__builtin__
object
p5
Ntp6
Rp7
(dp8
S'status'
p9
I01
sS'sender'
p10
I2
sS'bb'
p11
I00
sS'receiver'
p12
I13
sS'content'
p13
NsS'num'
p14
I1
sS'messageId'
p15
I23
sS'createdTime'
p16
S'2014-09-01 09:36:12'
p17
sS'property'
p18
NsbsS'op'
p19
S'recieve'
p20
sS'type'
p21
S'channel'
p22
sS'to'
p23
I13
s.(dp0
S'from'
p1
I5
sS'message'
p2
ccopy_reg
_reconstructor
p3
(cMessage
RequestResponseMessage
p4
c__builtin__
object
p5
Ntp6
Rp7
(dp8
S'status'
p9
I01
sS'sender'
p10
I5
sS'bb'
p11
I00
sS'receiver'
p12
I13
sS'content'
p13
NsS'num'
p14
I1
sS'messageId'
p15
I15
sS'createdTime'
p16
S'2014-09-01 09:36:12'
p17
sS'property'
p18
NsbsS'op'
p19
S'recieve'
p20
sS'type'
p21
S'channel'
p22
sS'to'
p23
I13
s.(dp0
S'from'
p1
I13
sS'message'
p2
ccopy_reg
_reconstructor
p3
(cMessage
DownloadRequestMessage
p4
c__builtin__
object
p5
Ntp6
Rp7
(dp8
S'sender'
p9
I13
sS'bb'
p10
I00
sS'receiver'
p11
I1
sS'content'
p12
(dp13
S'segmentFrom'
p14
I0
sS'segmentTo'
p15
I10
sS'segmentDownloadtime'
p16
I2
ssS'num'
p17
I13
sS'messageId'
p18
I0
sS'createdTime'
p19
S'2014-09-01 09:36:12'
p20
sS'property'
p21
NsbsS'op'
p22
S'send'
p23
sS'type'
p24
S'channel'
p25
sS'to'
p26
I1
s.(dp0
S'from'
p1
I0
sS'message'
p2
ccopy_reg
_reconstructor
p3
(cMessage
RequestResponseMessage
p4
c__builtin__
object
p5
Ntp6
Rp7
(dp8
S'status'
p9
I01
sS'sender'
p10
I0
sS'bb'
p11
I00
sS'receiver'
p12
I13
sS'content'
p13
NsS'num'
p14
I13
sS'messageId'
p15
I21
sS'createdTime'
p16
S'2014-09-01 09:36:12'
p17
sS'property'
p18
NsbsS'op'
p19
S'recieve'
p20
sS'type'
p21
S'channel'
p22
sS'to'
p23
I13
s.(dp0
S'from'
p1
I13
sS'message'
p2
ccopy_reg
_reconstructor
p3
(cMessage
DownloadRequestMessage
p4
c__builtin__
object
p5
Ntp6
Rp7
(dp8
S'sender'
p9
I13
sS'bb'
p10
I00
sS'receiver'
p11
I0
sS'content'
p12
(dp13
S'segmentFrom'
p14
I290
sS'segmentTo'
p15
I300
sS'segmentDownloadtime'
p16
I2
ssS'num'
p17
I14
sS'messageId'
p18
I29
sS'createdTime'
p19
S'2014-09-01 09:36:13'
p20
sS'property'
p21
NsbsS'op'
p22
S'send'
p23
sS'type'
p24
S'channel'
p25
sS'to'
p26
I0
s.(dp0
S'from'
p1
I9
sS'message'
p2
ccopy_reg
_reconstructor
p3
(cMessage
RequestResponseMessage
p4
c__builtin__
object
p5
Ntp6
Rp7
(dp8
S'status'
p9
I01
sS'sender'
p10
I9
sS'bb'
p11
I00
sS'receiver'
p12
I13
sS'content'
p13
NsS'num'
p14
I6
sS'messageId'
p15
I41
sS'createdTime'
p16
S'2014-09-01 09:36:13'
p17
sS'property'
p18
NsbsS'op'
p19
S'recieve'
p20
sS'type'
p21
S'channel'
p22
sS'to'
p23
I13
s.(dp0
S'from'
p1
I3
sS'message'
p2
ccopy_reg
_reconstructor
p3
(cMessage
RequestResponseMessage
p4
c__builtin__
object
p5
Ntp6
Rp7
(dp8
S'status'
p9
I01
sS'sender'
p10
I3
sS'bb'
p11
I00
sS'receiver'
p12
I13
sS'content'
p13
NsS'num'
p14
I15
sS'messageId'
p15
I1
sS'createdTime'
p16
S'2014-09-01 09:36:13'
p17
sS'property'
p18
NsbsS'op'
p19
S'recieve'
p20
sS'type'
p21
S'channel'
p22
sS'to'
p23
I13
s.(dp0
S'from'
p1
I13
sS'message'
p2
ccopy_reg
_reconstructor
p3
(cMessage
DownloadRequestMessage
p4
c__builtin__
object
p5
Ntp6
Rp7
(dp8
S'sender'
p9
I13
sS'bb'
p10
I00
sS'receiver'
p11
I2
sS'content'
p12
(dp13
S'segmentFrom'
p14
I370
sS'segmentTo'
p15
I380
sS'segmentDownloadtime'
p16
I2
ssS'num'
p17
I15
sS'messageId'
p18
I37
sS'createdTime'
p19
S'2014-09-01 09:36:13'
p20
sS'property'
p21
NsbsS'op'
p22
S'send'
p23
sS'type'
p24
S'channel'
p25
sS'to'
p26
I2
s.(dp0
S'from'
p1
I13
sS'message'
p2
ccopy_reg
_reconstructor
p3
(cMessage
DownloadRequestMessage
p4
c__builtin__
object
p5
Ntp6
Rp7
(dp8
S'sender'
p9
I13
sS'bb'
p10
I00
sS'receiver'
p11
I3
sS'content'
p12
(dp13
S'segmentFrom'
p14
I340
sS'segmentTo'
p15
I350
sS'segmentDownloadtime'
p16
I2
ssS'num'
p17
I16
sS'messageId'
p18
I34
sS'createdTime'
p19
S'2014-09-01 09:36:14'
p20
sS'property'
p21
NsbsS'op'
p22
S'send'
p23
sS'type'
p24
S'channel'
p25
sS'to'
p26
I3
s.(dp0
S'from'
p1
I1
sS'message'
p2
ccopy_reg
_reconstructor
p3
(cMessage
RequestResponseMessage
p4
c__builtin__
object
p5
Ntp6
Rp7
(dp8
S'status'
p9
I01
sS'sender'
p10
I1
sS'bb'
p11
I00
sS'receiver'
p12
I13
sS'content'
p13
NsS'num'
p14
I16
sS'messageId'
p15
I0
sS'createdTime'
p16
S'2014-09-01 09:36:14'
p17
sS'property'
p18
NsbsS'op'
p19
S'recieve'
p20
sS'type'
p21
S'channel'
p22
sS'to'
p23
I13
s.(dp0
S'from'
p1
I6
sS'message'
p2
ccopy_reg
_reconstructor
p3
(cMessage
RequestResponseMessage
p4
c__builtin__
object
p5
Ntp6
Rp7
(dp8
S'status'
p9
I01
sS'sender'
p10
I6
sS'bb'
p11
I00
sS'receiver'
p12
I13
sS'content'
p13
NsS'num'
p14
I6
sS'messageId'
p15
I27
sS'createdTime'
p16
S'2014-09-01 09:36:14'
p17
sS'property'
p18
NsbsS'op'
p19
S'recieve'
p20
sS'type'
p21
S'channel'
p22
sS'to'
p23
I13
s.(dp0
S'from'
p1
I13
sS'message'
p2
ccopy_reg
_reconstructor
p3
(cMessage
DownloadRequestMessage
p4
c__builtin__
object
p5
Ntp6
Rp7
(dp8
S'sender'
p9
I13
sS'bb'
p10
I00
sS'receiver'
p11
I1
sS'content'
p12
(dp13
S'segmentFrom'
p14
I320
sS'segmentTo'
p15
I330
sS'segmentDownloadtime'
p16
I2
ssS'num'
p17
I17
sS'messageId'
p18
I32
sS'createdTime'
p19
S'2014-09-01 09:36:15'
p20
sS'property'
p21
NsbsS'op'
p22
S'send'
p23
sS'type'
p24
S'channel'
p25
sS'to'
p26
I1
s.(dp0
S'from'
p1
I4
sS'message'
p2
ccopy_reg
_reconstructor
p3
(cMessage
RequestResponseMessage
p4
c__builtin__
object
p5
Ntp6
Rp7
(dp8
S'status'
p9
I01
sS'sender'
p10
I4
sS'bb'
p11
I00
sS'receiver'
p12
I13
sS'content'
p13
NsS'num'
p14
I17
sS'messageId'
p15
I40
sS'createdTime'
p16
S'2014-09-01 09:36:14'
p17
sS'property'
p18
NsbsS'op'
p19
S'recieve'
p20
sS'type'
p21
S'channel'
p22
sS'to'
p23
I13
s.(dp0
S'from'
p1
I13
sS'message'
p2
ccopy_reg
_reconstructor
p3
(cMessage
DownloadRequestMessage
p4
c__builtin__
object
p5
Ntp6
Rp7
(dp8
S'sender'
p9
I13
sS'bb'
p10
I00
sS'receiver'
p11
I4
sS'content'
p12
(dp13
S'segmentFrom'
p14
I310
sS'segmentTo'
p15
I320
sS'segmentDownloadtime'
p16
I2
ssS'num'
p17
I18
sS'messageId'
p18
I31
sS'createdTime'
p19
S'2014-09-01 09:36:15'
p20
sS'property'
p21
NsbsS'op'
p22
S'send'
p23
sS'type'
p24
S'channel'
p25
sS'to'
p26
I4
s.(dp0
S'from'
p1
I13
sS'message'
p2
ccopy_reg
_reconstructor
p3
(cMessage
DownloadRequestMessage
p4
c__builtin__
object
p5
Ntp6
Rp7
(dp8
S'sender'
p9
I13
sS'bb'
p10
I00
sS'receiver'
p11
I5
sS'content'
p12
(dp13
S'segmentFrom'
p14
I100
sS'segmentTo'
p15
I110
sS'segmentDownloadtime'
p16
I2
ssS'num'
p17
I19
sS'messageId'
p18
I10
sS'createdTime'
p19
S'2014-09-01 09:36:15'
p20
sS'property'
p21
NsbsS'op'
p22
S'send'
p23
sS'type'
p24
S'channel'
p25
sS'to'
p26
I5
s.(dp0
S'from'
p1
I13
sS'message'
p2
ccopy_reg
_reconstructor
p3
(cMessage
DownloadRequestMessage
p4
c__builtin__
object
p5
Ntp6
Rp7
(dp8
S'sender'
p9
I13
sS'bb'
p10
I00
sS'receiver'
p11
I6
sS'content'
p12
(dp13
S'segmentFrom'
p14
I190
sS'segmentTo'
p15
I200
sS'segmentDownloadtime'
p16
I2
ssS'num'
p17
I20
sS'messageId'
p18
I19
sS'createdTime'
p19
S'2014-09-01 09:36:16'
p20
sS'property'
p21
NsbsS'op'
p22
S'send'
p23
sS'type'
p24
S'channel'
p25
sS'to'
p26
I6
s.(dp0
S'from'
p1
I13
sS'message'
p2
ccopy_reg
_reconstructor
p3
(cMessage
DownloadRequestMessage
p4
c__builtin__
object
p5
Ntp6
Rp7
(dp8
S'sender'
p9
I13
sS'bb'
p10
I00
sS'receiver'
p11
I9
sS'content'
p12
(dp13
S'segmentFrom'
p14
I260
sS'segmentTo'
p15
I270
sS'segmentDownloadtime'
p16
I2
ssS'num'
p17
I21
sS'messageId'
p18
I26
sS'createdTime'
p19
S'2014-09-01 09:36:16'
p20
sS'property'
p21
NsbsS'op'
p22
S'send'
p23
sS'type'
p24
S'channel'
p25
sS'to'
p26
I9
s.(dp0
S'from'
p1
I13
sS'message'
p2
ccopy_reg
_reconstructor
p3
(cMessage
DownloadRequestMessage
p4
c__builtin__
object
p5
Ntp6
Rp7
(dp8
S'sender'
p9
I13
sS'bb'
p10
I00
sS'receiver'
p11
I10
sS'content'
p12
(dp13
S'segmentFrom'
p14
I50
sS'segmentTo'
p15
I60
sS'segmentDownloadtime'
p16
I2
ssS'num'
p17
I22
sS'messageId'
p18
I5
sS'createdTime'
p19
S'2014-09-01 09:36:16'
p20
sS'property'
p21
NsbsS'op'
p22
S'send'
p23
sS'type'
p24
S'channel'
p25
sS'to'
p26
I10
s.(dp0
S'from'
p1
I13
sS'message'
p2
ccopy_reg
_reconstructor
p3
(cMessage
DownloadRequestMessage
p4
c__builtin__
object
p5
Ntp6
Rp7
(dp8
S'sender'
p9
I13
sS'bb'
p10
I00
sS'receiver'
p11
I11
sS'content'
p12
(dp13
S'segmentFrom'
p14
I250
sS'segmentTo'
p15
I260
sS'segmentDownloadtime'
p16
I2
ssS'num'
p17
I23
sS'messageId'
p18
I25
sS'createdTime'
p19
S'2014-09-01 09:36:17'
p20
sS'property'
p21
NsbsS'op'
p22
S'send'
p23
sS'type'
p24
S'channel'
p25
sS'to'
p26
I11
s.(dp0
S'from'
p1
I13
sS'message'
p2
ccopy_reg
_reconstructor
p3
(cMessage
DownloadRequestMessage
p4
c__builtin__
object
p5
Ntp6
Rp7
(dp8
S'sender'
p9
I13
sS'bb'
p10
I00
sS'receiver'
p11
I12
sS'content'
p12
(dp13
S'segmentFrom'
p14
I130
sS'segmentTo'
p15
I140
sS'segmentDownloadtime'
p16
I2
ssS'num'
p17
I24
sS'messageId'
p18
I13
sS'createdTime'
p19
S'2014-09-01 09:36:17'
p20
sS'property'
p21
NsbsS'op'
p22
S'send'
p23
sS'type'
p24
S'channel'
p25
sS'to'
p26
I12
s.(dp0
S'from'
p1
I7
sS'message'
p2
ccopy_reg
_reconstructor
p3
(cMessage
RequestResponseMessage
p4
c__builtin__
object
p5
Ntp6
Rp7
(dp8
S'status'
p9
I01
sS'sender'
p10
I7
sS'bb'
p11
I00
sS'receiver'
p12
I13
sS'content'
p13
NsS'num'
p14
I5
sS'messageId'
p15
I42
sS'createdTime'
p16
S'2014-09-01 09:36:17'
p17
sS'property'
p18
NsbsS'op'
p19
S'recieve'
p20
sS'type'
p21
S'channel'
p22
sS'to'
p23
I13
s.(dp0
S'from'
p1
I13
sS'message'
p2
ccopy_reg
_reconstructor
p3
(cMessage
DownloadRequestMessage
p4
c__builtin__
object
p5
Ntp6
Rp7
(dp8
S'sender'
p9
I13
sS'bb'
p10
I00
sS'receiver'
p11
I7
sS'content'
p12
(dp13
S'segmentFrom'
p14
I350
sS'segmentTo'
p15
I360
sS'segmentDownloadtime'
p16
I2
ssS'num'
p17
I25
sS'messageId'
p18
I35
sS'createdTime'
p19
S'2014-09-01 09:36:17'
p20
sS'property'
p21
NsbsS'op'
p22
S'send'
p23
sS'type'
p24
S'channel'
p25
sS'to'
p26
I7
s.(dp0
S'from'
p1
I13
sS'message'
p2
ccopy_reg
_reconstructor
p3
(cMessage
DownloadRequestMessage
p4
c__builtin__
object
p5
Ntp6
Rp7
(dp8
S'sender'
p9
I13
sS'bb'
p10
I00
sS'receiver'
p11
I0
sS'content'
p12
(dp13
S'segmentFrom'
p14
I30
sS'segmentTo'
p15
I40
sS'segmentDownloadtime'
p16
I2
ssS'num'
p17
I26
sS'messageId'
p18
I3
sS'createdTime'
p19
S'2014-09-01 09:36:17'
p20
sS'property'
p21
NsbsS'op'
p22
S'send'
p23
sS'type'
p24
S'channel'
p25
sS'to'
p26
I0
s.(dp0
S'from'
p1
I0
sS'message'
p2
ccopy_reg
_reconstructor
p3
(cMessage
RequestResponseMessage
p4
c__builtin__
object
p5
Ntp6
Rp7
(dp8
S'status'
p9
I01
sS'sender'
p10
I0
sS'bb'
p11
I00
sS'receiver'
p12
I13
sS'content'
p13
NsS'num'
p14
I31
sS'messageId'
p15
I29
sS'createdTime'
p16
S'2014-09-01 09:36:17'
p17
sS'property'
p18
NsbsS'op'
p19
S'recieve'
p20
sS'type'
p21
S'channel'
p22
sS'to'
p23
I13
s.(dp0
S'from'
p1
I13
sS'message'
p2
ccopy_reg
_reconstructor
p3
(cMessage
DownloadRequestMessage
p4
c__builtin__
object
p5
Ntp6
Rp7
(dp8
S'sender'
p9
I13
sS'bb'
p10
I00
sS'receiver'
p11
I0
sS'content'
p12
(dp13
S'segmentFrom'
p14
I40
sS'segmentTo'
p15
I50
sS'segmentDownloadtime'
p16
I2
ssS'num'
p17
I27
sS'messageId'
p18
I4
sS'createdTime'
p19
S'2014-09-01 09:36:17'
p20
sS'property'
p21
NsbsS'op'
p22
S'send'
p23
sS'type'
p24
S'channel'
p25
sS'to'
p26
I0
s.(dp0
S'from'
p1
I13
sS'message'
p2
ccopy_reg
_reconstructor
p3
(cMessage
DownloadRequestMessage
p4
c__builtin__
object
p5
Ntp6
Rp7
(dp8
S'sender'
p9
I13
sS'bb'
p10
I00
sS'receiver'
p11
I1
sS'content'
p12
(dp13
S'segmentFrom'
p14
I90
sS'segmentTo'
p15
I100
sS'segmentDownloadtime'
p16
I2
ssS'num'
p17
I28
sS'messageId'
p18
I9
sS'createdTime'
p19
S'2014-09-01 09:36:18'
p20
sS'property'
p21
NsbsS'op'
p22
S'send'
p23
sS'type'
p24
S'channel'
p25
sS'to'
p26
I1
s.(dp0
S'from'
p1
I13
sS'message'
p2
ccopy_reg
_reconstructor
p3
(cMessage
DownloadRequestMessage
p4
c__builtin__
object
p5
Ntp6
Rp7
(dp8
S'sender'
p9
I13
sS'bb'
p10
I00
sS'receiver'
p11
I2
sS'content'
p12
(dp13
S'segmentFrom'
p14
I300
sS'segmentTo'
p15
I310
sS'segmentDownloadtime'
p16
I2
ssS'num'
p17
I29
sS'messageId'
p18
I30
sS'createdTime'
p19
S'2014-09-01 09:36:18'
p20
sS'property'
p21
NsbsS'op'
p22
S'send'
p23
sS'type'
p24
S'channel'
p25
sS'to'
p26
I2
s.(dp0
S'from'
p1
I3
sS'message'
p2
ccopy_reg
_reconstructor
p3
(cMessage
RequestResponseMessage
p4
c__builtin__
object
p5
Ntp6
Rp7
(dp8
S'status'
p9
I01
sS'sender'
p10
I3
sS'bb'
p11
I00
sS'receiver'
p12
I13
sS'content'
p13
NsS'num'
p14
I37
sS'messageId'
p15
I34
sS'createdTime'
p16
S'2014-09-01 09:36:18'
p17
sS'property'
p18
NsbsS'op'
p19
S'recieve'
p20
sS'type'
p21
S'channel'
p22
sS'to'
p23
I13
s.(dp0
S'from'
p1
I13
sS'message'
p2
ccopy_reg
_reconstructor
p3
(cMessage
DownloadRequestMessage
p4
c__builtin__
object
p5
Ntp6
Rp7
(dp8
S'sender'
p9
I13
sS'bb'
p10
I00
sS'receiver'
p11
I3
sS'content'
p12
(dp13
S'segmentFrom'
p14
I70
sS'segmentTo'
p15
I80
sS'segmentDownloadtime'
p16
I2
ssS'num'
p17
I30
sS'messageId'
p18
I7
sS'createdTime'
p19
S'2014-09-01 09:36:18'
p20
sS'property'
p21
NsbsS'op'
p22
S'send'
p23
sS'type'
p24
S'channel'
p25
sS'to'
p26
I3
s.(dp0
S'from'
p1
I13
sS'message'
p2
ccopy_reg
_reconstructor
p3
(cMessage
DownloadRequestMessage
p4
c__builtin__
object
p5
Ntp6
Rp7
(dp8
S'sender'
p9
I13
sS'bb'
p10
I00
sS'receiver'
p11
I3
sS'content'
p12
(dp13
S'segmentFrom'
p14
I240
sS'segmentTo'
p15
I250
sS'segmentDownloadtime'
p16
I2
ssS'num'
p17
I31
sS'messageId'
p18
I24
sS'createdTime'
p19
S'2014-09-01 09:36:19'
p20
sS'property'
p21
NsbsS'op'
p22
S'send'
p23
sS'type'
p24
S'channel'
p25
sS'to'
p26
I3
s.(dp0
S'from'
p1
I13
sS'message'
p2
ccopy_reg
_reconstructor
p3
(cMessage
DownloadRequestMessage
p4
c__builtin__
object
p5
Ntp6
Rp7
(dp8
S'sender'
p9
I13
sS'bb'
p10
I00
sS'receiver'
p11
I4
sS'content'
p12
(dp13
S'segmentFrom'
p14
I160
sS'segmentTo'
p15
I170
sS'segmentDownloadtime'
p16
I2
ssS'num'
p17
I32
sS'messageId'
p18
I16
sS'createdTime'
p19
S'2014-09-01 09:36:19'
p20
sS'property'
p21
NsbsS'op'
p22
S'send'
p23
sS'type'
p24
S'channel'
p25
sS'to'
p26
I4
s.(dp0
S'from'
p1
I11
sS'message'
p2
ccopy_reg
_reconstructor
p3
(cMessage
RequestResponseMessage
p4
c__builtin__
object
p5
Ntp6
Rp7
(dp8
S'status'
p9
I01
sS'sender'
p10
I11
sS'bb'
p11
I00
sS'receiver'
p12
I13
sS'content'
p13
NsS'num'
p14
I11
sS'messageId'
p15
I25
sS'createdTime'
p16
S'2014-09-01 09:36:19'
p17
sS'property'
p18
NsbsS'op'
p19
S'recieve'
p20
sS'type'
p21
S'channel'
p22
sS'to'
p23
I13
s.(dp0
S'from'
p1
I1
sS'message'
p2
ccopy_reg
_reconstructor
p3
(cMessage
RequestResponseMessage
p4
c__builtin__
object
p5
Ntp6
Rp7
(dp8
S'status'
p9
I01
sS'sender'
p10
I1
sS'bb'
p11
I00
sS'receiver'
p12
I13
sS'content'
p13
NsS'num'
p14
I33
sS'messageId'
p15
I32
sS'createdTime'
p16
S'2014-09-01 09:36:19'
p17
sS'property'
p18
NsbsS'op'
p19
S'recieve'
p20
sS'type'
p21
S'channel'
p22
sS'to'
p23
I13
s.(dp0
S'from'
p1
I4
sS'message'
p2
ccopy_reg
_reconstructor
p3
(cMessage
RequestResponseMessage
p4
c__builtin__
object
p5
Ntp6
Rp7
(dp8
S'status'
p9
I01
sS'sender'
p10
I4
sS'bb'
p11
I00
sS'receiver'
p12
I13
sS'content'
p13
NsS'num'
p14
I38
sS'messageId'
p15
I31
sS'createdTime'
p16
S'2014-09-01 09:36:19'
p17
sS'property'
p18
NsbsS'op'
p19
S'recieve'
p20
sS'type'
p21
S'channel'
p22
sS'to'
p23
I13
s.(dp0
S'from'
p1
I13
sS'message'
p2
ccopy_reg
_reconstructor
p3
(cMessage
DownloadRequestMessage
p4
c__builtin__
object
p5
Ntp6
Rp7
(dp8
S'sender'
p9
I13
sS'bb'
p10
I00
sS'receiver'
p11
I11
sS'content'
p12
(dp13
S'segmentFrom'
p14
I220
sS'segmentTo'
p15
I230
sS'segmentDownloadtime'
p16
I2
ssS'num'
p17
I33
sS'messageId'
p18
I22
sS'createdTime'
p19
S'2014-09-01 09:36:20'
p20
sS'property'
p21
NsbsS'op'
p22
S'send'
p23
sS'type'
p24
S'channel'
p25
sS'to'
p26
I11
s.(dp0
S'from'
p1
I13
sS'message'
p2
ccopy_reg
_reconstructor
p3
(cMessage
DownloadRequestMessage
p4
c__builtin__
object
p5
Ntp6
Rp7
(dp8
S'sender'
p9
I13
sS'bb'
p10
I00
sS'receiver'
p11
I1
sS'content'
p12
(dp13
S'segmentFrom'
p14
I390
sS'segmentTo'
p15
I400
sS'segmentDownloadtime'
p16
I2
ssS'num'
p17
I34
sS'messageId'
p18
I39
sS'createdTime'
p19
S'2014-09-01 09:36:20'
p20
sS'property'
p21
NsbsS'op'
p22
S'send'
p23
sS'type'
p24
S'channel'
p25
sS'to'
p26
I1
s.(dp0
S'from'
p1
I7
sS'message'
p2
ccopy_reg
_reconstructor
p3
(cMessage
RequestResponseMessage
p4
c__builtin__
object
p5
Ntp6
Rp7
(dp8
S'status'
p9
I01
sS'sender'
p10
I7
sS'bb'
p11
I00
sS'receiver'
p12
I13
sS'content'
p13
NsS'num'
p14
I19
sS'messageId'
p15
I35
sS'createdTime'
p16
S'2014-09-01 09:36:19'
p17
sS'property'
p18
NsbsS'op'
p19
S'recieve'
p20
sS'type'
p21
S'channel'
p22
sS'to'
p23
I13
s.(dp0
S'from'
p1
I12
sS'message'
p2
ccopy_reg
_reconstructor
p3
(cMessage
RequestResponseMessage
p4
c__builtin__
object
p5
Ntp6
Rp7
(dp8
S'status'
p9
I01
sS'sender'
p10
I12
sS'bb'
p11
I00
sS'receiver'
p12
I13
sS'content'
p13
NsS'num'
p14
I11
sS'messageId'
p15
I13
sS'createdTime'
p16
S'2014-09-01 09:36:19'
p17
sS'property'
p18
NsbsS'op'
p19
S'recieve'
p20
sS'type'
p21
S'channel'
p22
sS'to'
p23
I13
s.(dp0
S'from'
p1
I0
sS'message'
p2
ccopy_reg
_reconstructor
p3
(cMessage
RequestResponseMessage
p4
c__builtin__
object
p5
Ntp6
Rp7
(dp8
S'status'
p9
I01
sS'sender'
p10
I0
sS'bb'
p11
I00
sS'receiver'
p12
I13
sS'content'
p13
NsS'num'
p14
I45
sS'messageId'
p15
I3
sS'createdTime'
p16
S'2014-09-01 09:36:19'
p17
sS'property'
p18
NsbsS'op'
p19
S'recieve'
p20
sS'type'
p21
S'channel'
p22
sS'to'
p23
I13
s.(dp0
S'from'
p1
I13
sS'message'
p2
ccopy_reg
_reconstructor
p3
(cMessage
DownloadRequestMessage
p4
c__builtin__
object
p5
Ntp6
Rp7
(dp8
S'sender'
p9
I13
sS'bb'
p10
I00
sS'receiver'
p11
I7
sS'content'
p12
(dp13
S'segmentFrom'
p14
I330
sS'segmentTo'
p15
I340
sS'segmentDownloadtime'
p16
I2
ssS'num'
p17
I35
sS'messageId'
p18
I33
sS'createdTime'
p19
S'2014-09-01 09:36:21'
p20
sS'property'
p21
NsbsS'op'
p22
S'send'
p23
sS'type'
p24
S'channel'
p25
sS'to'
p26
I7
s.(dp0
S'from'
p1
I13
sS'message'
p2
ccopy_reg
_reconstructor
p3
(cMessage
DownloadRequestMessage
p4
c__builtin__
object
p5
Ntp6
Rp7
(dp8
S'sender'
p9
I13
sS'bb'
p10
I00
sS'receiver'
p11
I12
sS'content'
p12
(dp13
S'segmentFrom'
p14
I280
sS'segmentTo'
p15
I290
sS'segmentDownloadtime'
p16
I2
ssS'num'
p17
I36
sS'messageId'
p18
I28
sS'createdTime'
p19
S'2014-09-01 09:36:21'
p20
sS'property'
p21
NsbsS'op'
p22
S'send'
p23
sS'type'
p24
S'channel'
p25
sS'to'
p26
I12
s.(dp0
S'from'
p1
I13
sS'message'
p2
ccopy_reg
_reconstructor
p3
(cMessage
DownloadRequestMessage
p4
c__builtin__
object
p5
Ntp6
Rp7
(dp8
S'sender'
p9
I13
sS'bb'
p10
I00
sS'receiver'
p11
I0
sS'content'
p12
(dp13
S'segmentFrom'
p14
I140
sS'segmentTo'
p15
I150
sS'segmentDownloadtime'
p16
I2
ssS'num'
p17
I37
sS'messageId'
p18
I14
sS'createdTime'
p19
S'2014-09-01 09:36:21'
p20
sS'property'
p21
NsbsS'op'
p22
S'send'
p23
sS'type'
p24
S'channel'
p25
sS'to'
p26
I0
s.(dp0
S'from'
p1
I3
sS'message'
p2
ccopy_reg
_reconstructor
p3
(cMessage
RequestResponseMessage
p4
c__builtin__
object
p5
Ntp6
Rp7
(dp8
S'status'
p9
I01
sS'sender'
p10
I3
sS'bb'
p11
I00
sS'receiver'
p12
I13
sS'content'
p13
NsS'num'
p14
I54
sS'messageId'
p15
I7
sS'createdTime'
p16
S'2014-09-01 09:36:21'
p17
sS'property'
p18
NsbsS'op'
p19
S'recieve'
p20
sS'type'
p21
S'channel'
p22
sS'to'
p23
I13
s.(dp0
S'from'
p1
I5
sS'message'
p2
ccopy_reg
_reconstructor
p3
(cMessage
RequestResponseMessage
p4
c__builtin__
object
p5
Ntp6
Rp7
(dp8
S'status'
p9
I01
sS'sender'
p10
I5
sS'bb'
p11
I00
sS'receiver'
p12
I13
sS'content'
p13
NsS'num'
p14
I30
sS'messageId'
p15
I10
sS'createdTime'
p16
S'2014-09-01 09:36:21'
p17
sS'property'
p18
NsbsS'op'
p19
S'recieve'
p20
sS'type'
p21
S'channel'
p22
sS'to'
p23
I13
s.(dp0
S'from'
p1
I13
sS'message'
p2
ccopy_reg
_reconstructor
p3
(cMessage
DownloadRequestMessage
p4
c__builtin__
object
p5
Ntp6
Rp7
(dp8
S'sender'
p9
I13
sS'bb'
p10
I00
sS'receiver'
p11
I5
sS'content'
p12
(dp13
S'segmentFrom'
p14
I200
sS'segmentTo'
p15
I210
sS'segmentDownloadtime'
p16
I2
ssS'num'
p17
I38
sS'messageId'
p18
I20
sS'createdTime'
p19
S'2014-09-01 09:36:22'
p20
sS'property'
p21
NsbsS'op'
p22
S'send'
p23
sS'type'
p24
S'channel'
p25
sS'to'
p26
I5
s.(dp0
S'from'
p1
I13
sS'message'
p2
ccopy_reg
_reconstructor
p3
(cMessage
DownloadRequestMessage
p4
c__builtin__
object
p5
Ntp6
Rp7
(dp8
S'sender'
p9
I13
sS'bb'
p10
I00
sS'receiver'
p11
I3
sS'content'
p12
(dp13
S'segmentFrom'
p14
I180
sS'segmentTo'
p15
I190
sS'segmentDownloadtime'
p16
I2
ssS'num'
p17
I39
sS'messageId'
p18
I18
sS'createdTime'
p19
S'2014-09-01 09:36:22'
p20
sS'property'
p21
NsbsS'op'
p22
S'send'
p23
sS'type'
p24
S'channel'
p25
sS'to'
p26
I3
s.(dp0
S'from'
p1
I11
sS'message'
p2
ccopy_reg
_reconstructor
p3
(cMessage
RequestResponseMessage
p4
c__builtin__
object
p5
Ntp6
Rp7
(dp8
S'status'
p9
I01
sS'sender'
p10
I11
sS'bb'
p11
I00
sS'receiver'
p12
I13
sS'content'
p13
NsS'num'
p14
I26
sS'messageId'
p15
I22
sS'createdTime'
p16
S'2014-09-01 09:36:21'
p17
sS'property'
p18
NsbsS'op'
p19
S'recieve'
p20
sS'type'
p21
S'channel'
p22
sS'to'
p23
I13
s.(dp0
S'from'
p1
I13
sS'message'
p2
ccopy_reg
_reconstructor
p3
(cMessage
DownloadRequestMessage
p4
c__builtin__
object
p5
Ntp6
Rp7
(dp8
S'sender'
p9
I13
sS'bb'
p10
I00
sS'receiver'
p11
I11
sS'content'
p12
(dp13
S'segmentFrom'
p14
I360
sS'segmentTo'
p15
I370
sS'segmentDownloadtime'
p16
I2
ssS'num'
p17
I40
sS'messageId'
p18
I36
sS'createdTime'
p19
S'2014-09-01 09:36:22'
p20
sS'property'
p21
NsbsS'op'
p22
S'send'
p23
sS'type'
p24
S'channel'
p25
sS'to'
p26
I11
s.(dp0
S'from'
p1
I13
sS'message'
p2
ccopy_reg
_reconstructor
p3
(cMessage
DownloadRequestMessage
p4
c__builtin__
object
p5
Ntp6
Rp7
(dp8
S'sender'
p9
I13
sS'bb'
p10
I00
sS'receiver'
p11
I4
sS'content'
p12
(dp13
S'segmentFrom'
p14
I110
sS'segmentTo'
p15
I120
sS'segmentDownloadtime'
p16
I2
ssS'num'
p17
I41
sS'messageId'
p18
I11
sS'createdTime'
p19
S'2014-09-01 09:36:22'
p20
sS'property'
p21
NsbsS'op'
p22
S'send'
p23
sS'type'
p24
S'channel'
p25
sS'to'
p26
I4
s.(dp0
S'from'
p1
I6
sS'message'
p2
ccopy_reg
_reconstructor
p3
(cMessage
RequestResponseMessage
p4
c__builtin__
object
p5
Ntp6
Rp7
(dp8
S'status'
p9
I01
sS'sender'
p10
I6
sS'bb'
p11
I00
sS'receiver'
p12
I13
sS'content'
p13
NsS'num'
p14
I28
sS'messageId'
p15
I19
sS'createdTime'
p16
S'2014-09-01 09:36:22'
p17
sS'property'
p18
NsbsS'op'
p19
S'recieve'
p20
sS'type'
p21
S'channel'
p22
sS'to'
p23
I13
s.(dp0
S'from'
p1
I13
sS'message'
p2
ccopy_reg
_reconstructor
p3
(cMessage
DownloadRequestMessage
p4
c__builtin__
object
p5
Ntp6
Rp7
(dp8
S'sender'
p9
I13
sS'bb'
p10
I00
sS'receiver'
p11
I6
sS'content'
p12
(dp13
S'segmentFrom'
p14
I80
sS'segmentTo'
p15
I90
sS'segmentDownloadtime'
p16
I2
ssS'num'
p17
I42
sS'messageId'
p18
I8
sS'createdTime'
p19
S'2014-09-01 09:36:23'
p20
sS'property'
p21
NsbsS'op'
p22
S'send'
p23
sS'type'
p24
S'channel'
p25
sS'to'
p26
I6
s.