(dp0
S'procId'
p1
I12
sS'type'
p2
S'process'
p3
sS'op'
p4
S'startMicroDownload'
p5
s.(dp0
S'from'
p1
I12
sS'message'
p2
ccopy_reg
_reconstructor
p3
(cMessage
DownloadRequestMessage
p4
c__builtin__
object
p5
Ntp6
Rp7
(dp8
S'sender'
p9
I12
sS'bb'
p10
I00
sS'receiver'
p11
I0
sS'content'
p12
(dp13
S'segmentFrom'
p14
I270
sS'segmentTo'
p15
I280
sS'segmentDownloadtime'
p16
I2
ssS'num'
p17
I0
sS'messageId'
p18
I27
sS'createdTime'
p19
S'2014-09-01 09:34:30'
p20
sS'property'
p21
NsbsS'op'
p22
S'send'
p23
sS'type'
p24
S'channel'
p25
sS'to'
p26
I0
s.(dp0
S'from'
p1
I12
sS'message'
p2
ccopy_reg
_reconstructor
p3
(cMessage
DownloadRequestMessage
p4
c__builtin__
object
p5
Ntp6
Rp7
(dp8
S'sender'
p9
I12
sS'bb'
p10
I00
sS'receiver'
p11
I1
sS'content'
p12
(dp13
S'segmentFrom'
p14
I310
sS'segmentTo'
p15
I320
sS'segmentDownloadtime'
p16
I2
ssS'num'
p17
I1
sS'messageId'
p18
I31
sS'createdTime'
p19
S'2014-09-01 09:34:30'
p20
sS'property'
p21
NsbsS'op'
p22
S'send'
p23
sS'type'
p24
S'channel'
p25
sS'to'
p26
I1
s.(dp0
S'from'
p1
I12
sS'message'
p2
ccopy_reg
_reconstructor
p3
(cMessage
DownloadRequestMessage
p4
c__builtin__
object
p5
Ntp6
Rp7
(dp8
S'sender'
p9
I12
sS'bb'
p10
I00
sS'receiver'
p11
I2
sS'content'
p12
(dp13
S'segmentFrom'
p14
I200
sS'segmentTo'
p15
I210
sS'segmentDownloadtime'
p16
I2
ssS'num'
p17
I2
sS'messageId'
p18
I20
sS'createdTime'
p19
S'2014-09-01 09:34:31'
p20
sS'property'
p21
NsbsS'op'
p22
S'send'
p23
sS'type'
p24
S'channel'
p25
sS'to'
p26
I2
s.(dp0
S'from'
p1
I0
sS'message'
p2
ccopy_reg
_reconstructor
p3
(cMessage
RequestResponseMessage
p4
c__builtin__
object
p5
Ntp6
Rp7
(dp8
S'status'
p9
I01
sS'sender'
p10
I0
sS'bb'
p11
I00
sS'receiver'
p12
I12
sS'content'
p13
NsS'num'
p14
I0
sS'messageId'
p15
I27
sS'createdTime'
p16
S'2014-09-01 09:34:31'
p17
sS'property'
p18
NsbsS'op'
p19
S'recieve'
p20
sS'type'
p21
S'channel'
p22
sS'to'
p23
I12
s.(dp0
S'from'
p1
I12
sS'message'
p2
ccopy_reg
_reconstructor
p3
(cMessage
DownloadRequestMessage
p4
c__builtin__
object
p5
Ntp6
Rp7
(dp8
S'sender'
p9
I12
sS'bb'
p10
I00
sS'receiver'
p11
I0
sS'content'
p12
(dp13
S'segmentFrom'
p14
I60
sS'segmentTo'
p15
I70
sS'segmentDownloadtime'
p16
I2
ssS'num'
p17
I3
sS'messageId'
p18
I6
sS'createdTime'
p19
S'2014-09-01 09:34:31'
p20
sS'property'
p21
NsbsS'op'
p22
S'send'
p23
sS'type'
p24
S'channel'
p25
sS'to'
p26
I0
s.(dp0
S'from'
p1
I12
sS'message'
p2
ccopy_reg
_reconstructor
p3
(cMessage
DownloadRequestMessage
p4
c__builtin__
object
p5
Ntp6
Rp7
(dp8
S'sender'
p9
I12
sS'bb'
p10
I00
sS'receiver'
p11
I3
sS'content'
p12
(dp13
S'segmentFrom'
p14
I140
sS'segmentTo'
p15
I150
sS'segmentDownloadtime'
p16
I2
ssS'num'
p17
I4
sS'messageId'
p18
I14
sS'createdTime'
p19
S'2014-09-01 09:34:31'
p20
sS'property'
p21
NsbsS'op'
p22
S'send'
p23
sS'type'
p24
S'channel'
p25
sS'to'
p26
I3
s.(dp0
S'from'
p1
I12
sS'message'
p2
ccopy_reg
_reconstructor
p3
(cMessage
DownloadRequestMessage
p4
c__builtin__
object
p5
Ntp6
Rp7
(dp8
S'sender'
p9
I12
sS'bb'
p10
I00
sS'receiver'
p11
I4
sS'content'
p12
(dp13
S'segmentFrom'
p14
I410
sS'segmentTo'
p15
I420
sS'segmentDownloadtime'
p16
I2
ssS'num'
p17
I5
sS'messageId'
p18
I41
sS'createdTime'
p19
S'2014-09-01 09:34:31'
p20
sS'property'
p21
NsbsS'op'
p22
S'send'
p23
sS'type'
p24
S'channel'
p25
sS'to'
p26
I4
s.(dp0
S'from'
p1
I12
sS'message'
p2
ccopy_reg
_reconstructor
p3
(cMessage
DownloadRequestMessage
p4
c__builtin__
object
p5
Ntp6
Rp7
(dp8
S'sender'
p9
I12
sS'bb'
p10
I00
sS'receiver'
p11
I5
sS'content'
p12
(dp13
S'segmentFrom'
p14
I90
sS'segmentTo'
p15
I100
sS'segmentDownloadtime'
p16
I2
ssS'num'
p17
I6
sS'messageId'
p18
I9
sS'createdTime'
p19
S'2014-09-01 09:34:32'
p20
sS'property'
p21
NsbsS'op'
p22
S'send'
p23
sS'type'
p24
S'channel'
p25
sS'to'
p26
I5
s.(dp0
S'from'
p1
I1
sS'message'
p2
ccopy_reg
_reconstructor
p3
(cMessage
RequestResponseMessage
p4
c__builtin__
object
p5
Ntp6
Rp7
(dp8
S'status'
p9
I01
sS'sender'
p10
I1
sS'bb'
p11
I00
sS'receiver'
p12
I12
sS'content'
p13
NsS'num'
p14
I0
sS'messageId'
p15
I31
sS'createdTime'
p16
S'2014-09-01 09:34:32'
p17
sS'property'
p18
NsbsS'op'
p19
S'recieve'
p20
sS'type'
p21
S'channel'
p22
sS'to'
p23
I12
s.(dp0
S'from'
p1
I12
sS'message'
p2
ccopy_reg
_reconstructor
p3
(cMessage
DownloadRequestMessage
p4
c__builtin__
object
p5
Ntp6
Rp7
(dp8
S'sender'
p9
I12
sS'bb'
p10
I00
sS'receiver'
p11
I1
sS'content'
p12
(dp13
S'segmentFrom'
p14
I0
sS'segmentTo'
p15
I10
sS'segmentDownloadtime'
p16
I2
ssS'num'
p17
I7
sS'messageId'
p18
I0
sS'createdTime'
p19
S'2014-09-01 09:34:32'
p20
sS'property'
p21
NsbsS'op'
p22
S'send'
p23
sS'type'
p24
S'channel'
p25
sS'to'
p26
I1
s.(dp0
S'from'
p1
I3
sS'message'
p2
ccopy_reg
_reconstructor
p3
(cMessage
RequestResponseMessage
p4
c__builtin__
object
p5
Ntp6
Rp7
(dp8
S'status'
p9
I01
sS'sender'
p10
I3
sS'bb'
p11
I00
sS'receiver'
p12
I12
sS'content'
p13
NsS'num'
p14
I0
sS'messageId'
p15
I14
sS'createdTime'
p16
S'2014-09-01 09:34:32'
p17
sS'property'
p18
NsbsS'op'
p19
S'recieve'
p20
sS'type'
p21
S'channel'
p22
sS'to'
p23
I12
s.(dp0
S'from'
p1
I2
sS'message'
p2
ccopy_reg
_reconstructor
p3
(cMessage
RequestResponseMessage
p4
c__builtin__
object
p5
Ntp6
Rp7
(dp8
S'status'
p9
I01
sS'sender'
p10
I2
sS'bb'
p11
I00
sS'receiver'
p12
I12
sS'content'
p13
NsS'num'
p14
I1
sS'messageId'
p15
I20
sS'createdTime'
p16
S'2014-09-01 09:34:32'
p17
sS'property'
p18
NsbsS'op'
p19
S'recieve'
p20
sS'type'
p21
S'channel'
p22
sS'to'
p23
I12
s.(dp0
S'from'
p1
I12
sS'message'
p2
ccopy_reg
_reconstructor
p3
(cMessage
DownloadRequestMessage
p4
c__builtin__
object
p5
Ntp6
Rp7
(dp8
S'sender'
p9
I12
sS'bb'
p10
I00
sS'receiver'
p11
I2
sS'content'
p12
(dp13
S'segmentFrom'
p14
I110
sS'segmentTo'
p15
I120
sS'segmentDownloadtime'
p16
I2
ssS'num'
p17
I8
sS'messageId'
p18
I11
sS'createdTime'
p19
S'2014-09-01 09:34:33'
p20
sS'property'
p21
NsbsS'op'
p22
S'send'
p23
sS'type'
p24
S'channel'
p25
sS'to'
p26
I2
s.(dp0
S'from'
p1
I12
sS'message'
p2
ccopy_reg
_reconstructor
p3
(cMessage
DownloadRequestMessage
p4
c__builtin__
object
p5
Ntp6
Rp7
(dp8
S'sender'
p9
I12
sS'bb'
p10
I00
sS'receiver'
p11
I3
sS'content'
p12
(dp13
S'segmentFrom'
p14
I220
sS'segmentTo'
p15
I230
sS'segmentDownloadtime'
p16
I2
ssS'num'
p17
I9
sS'messageId'
p18
I22
sS'createdTime'
p19
S'2014-09-01 09:34:33'
p20
sS'property'
p21
NsbsS'op'
p22
S'send'
p23
sS'type'
p24
S'channel'
p25
sS'to'
p26
I3
s.(dp0
S'from'
p1
I0
sS'message'
p2
ccopy_reg
_reconstructor
p3
(cMessage
RequestResponseMessage
p4
c__builtin__
object
p5
Ntp6
Rp7
(dp8
S'status'
p9
I01
sS'sender'
p10
I0
sS'bb'
p11
I00
sS'receiver'
p12
I12
sS'content'
p13
NsS'num'
p14
I14
sS'messageId'
p15
I6
sS'createdTime'
p16
S'2014-09-01 09:34:33'
p17
sS'property'
p18
NsbsS'op'
p19
S'recieve'
p20
sS'type'
p21
S'channel'
p22
sS'to'
p23
I12
s.(dp0
S'from'
p1
I12
sS'message'
p2
ccopy_reg
_reconstructor
p3
(cMessage
DownloadRequestMessage
p4
c__builtin__
object
p5
Ntp6
Rp7
(dp8
S'sender'
p9
I12
sS'bb'
p10
I00
sS'receiver'
p11
I0
sS'content'
p12
(dp13
S'segmentFrom'
p14
I400
sS'segmentTo'
p15
I410
sS'segmentDownloadtime'
p16
I2
ssS'num'
p17
I10
sS'messageId'
p18
I40
sS'createdTime'
p19
S'2014-09-01 09:34:33'
p20
sS'property'
p21
NsbsS'op'
p22
S'send'
p23
sS'type'
p24
S'channel'
p25
sS'to'
p26
I0
s.(dp0
S'from'
p1
I12
sS'message'
p2
ccopy_reg
_reconstructor
p3
(cMessage
DownloadRequestMessage
p4
c__builtin__
object
p5
Ntp6
Rp7
(dp8
S'sender'
p9
I12
sS'bb'
p10
I00
sS'receiver'
p11
I6
sS'content'
p12
(dp13
S'segmentFrom'
p14
I30
sS'segmentTo'
p15
I40
sS'segmentDownloadtime'
p16
I2
ssS'num'
p17
I11
sS'messageId'
p18
I3
sS'createdTime'
p19
S'2014-09-01 09:34:33'
p20
sS'property'
p21
NsbsS'op'
p22
S'send'
p23
sS'type'
p24
S'channel'
p25
sS'to'
p26
I6
s.(dp0
S'from'
p1
I12
sS'message'
p2
ccopy_reg
_reconstructor
p3
(cMessage
DownloadRequestMessage
p4
c__builtin__
object
p5
Ntp6
Rp7
(dp8
S'sender'
p9
I12
sS'bb'
p10
I00
sS'receiver'
p11
I7
sS'content'
p12
(dp13
S'segmentFrom'
p14
I160
sS'segmentTo'
p15
I170
sS'segmentDownloadtime'
p16
I2
ssS'num'
p17
I12
sS'messageId'
p18
I16
sS'createdTime'
p19
S'2014-09-01 09:34:34'
p20
sS'property'
p21
NsbsS'op'
p22
S'send'
p23
sS'type'
p24
S'channel'
p25
sS'to'
p26
I7
s.(dp0
S'from'
p1
I5
sS'message'
p2
ccopy_reg
_reconstructor
p3
(cMessage
RequestResponseMessage
p4
c__builtin__
object
p5
Ntp6
Rp7
(dp8
S'status'
p9
I01
sS'sender'
p10
I5
sS'bb'
p11
I00
sS'receiver'
p12
I12
sS'content'
p13
NsS'num'
p14
I3
sS'messageId'
p15
I9
sS'createdTime'
p16
S'2014-09-01 09:34:33'
p17
sS'property'
p18
NsbsS'op'
p19
S'recieve'
p20
sS'type'
p21
S'channel'
p22
sS'to'
p23
I12
s.(dp0
S'from'
p1
I12
sS'message'
p2
ccopy_reg
_reconstructor
p3
(cMessage
DownloadRequestMessage
p4
c__builtin__
object
p5
Ntp6
Rp7
(dp8
S'sender'
p9
I12
sS'bb'
p10
I00
sS'receiver'
p11
I5
sS'content'
p12
(dp13
S'segmentFrom'
p14
I180
sS'segmentTo'
p15
I190
sS'segmentDownloadtime'
p16
I2
ssS'num'
p17
I13
sS'messageId'
p18
I18
sS'createdTime'
p19
S'2014-09-01 09:34:34'
p20
sS'property'
p21
NsbsS'op'
p22
S'send'
p23
sS'type'
p24
S'channel'
p25
sS'to'
p26
I5
s.(dp0
S'from'
p1
I12
sS'message'
p2
ccopy_reg
_reconstructor
p3
(cMessage
DownloadRequestMessage
p4
c__builtin__
object
p5
Ntp6
Rp7
(dp8
S'sender'
p9
I12
sS'bb'
p10
I00
sS'receiver'
p11
I8
sS'content'
p12
(dp13
S'segmentFrom'
p14
I420
sS'segmentTo'
p15
I430
sS'segmentDownloadtime'
p16
I2
ssS'num'
p17
I14
sS'messageId'
p18
I42
sS'createdTime'
p19
S'2014-09-01 09:34:34'
p20
sS'property'
p21
NsbsS'op'
p22
S'send'
p23
sS'type'
p24
S'channel'
p25
sS'to'
p26
I8
s.(dp0
S'from'
p1
I12
sS'message'
p2
ccopy_reg
_reconstructor
p3
(cMessage
DownloadRequestMessage
p4
c__builtin__
object
p5
Ntp6
Rp7
(dp8
S'sender'
p9
I12
sS'bb'
p10
I00
sS'receiver'
p11
I9
sS'content'
p12
(dp13
S'segmentFrom'
p14
I370
sS'segmentTo'
p15
I380
sS'segmentDownloadtime'
p16
I2
ssS'num'
p17
I15
sS'messageId'
p18
I37
sS'createdTime'
p19
S'2014-09-01 09:34:34'
p20
sS'property'
p21
NsbsS'op'
p22
S'send'
p23
sS'type'
p24
S'channel'
p25
sS'to'
p26
I9
s.(dp0
S'from'
p1
I4
sS'message'
p2
ccopy_reg
_reconstructor
p3
(cMessage
RequestResponseMessage
p4
c__builtin__
object
p5
Ntp6
Rp7
(dp8
S'status'
p9
I01
sS'sender'
p10
I4
sS'bb'
p11
I00
sS'receiver'
p12
I12
sS'content'
p13
NsS'num'
p14
I4
sS'messageId'
p15
I41
sS'createdTime'
p16
S'2014-09-01 09:34:34'
p17
sS'property'
p18
NsbsS'op'
p19
S'recieve'
p20
sS'type'
p21
S'channel'
p22
sS'to'
p23
I12
s.(dp0
S'from'
p1
I12
sS'message'
p2
ccopy_reg
_reconstructor
p3
(cMessage
DownloadRequestMessage
p4
c__builtin__
object
p5
Ntp6
Rp7
(dp8
S'sender'
p9
I12
sS'bb'
p10
I00
sS'receiver'
p11
I4
sS'content'
p12
(dp13
S'segmentFrom'
p14
I350
sS'segmentTo'
p15
I360
sS'segmentDownloadtime'
p16
I2
ssS'num'
p17
I16
sS'messageId'
p18
I35
sS'createdTime'
p19
S'2014-09-01 09:34:35'
p20
sS'property'
p21
NsbsS'op'
p22
S'send'
p23
sS'type'
p24
S'channel'
p25
sS'to'
p26
I4
s.(dp0
S'from'
p1
I8
sS'message'
p2
ccopy_reg
_reconstructor
p3
(cMessage
RequestResponseMessage
p4
c__builtin__
object
p5
Ntp6
Rp7
(dp8
S'status'
p9
I01
sS'sender'
p10
I8
sS'bb'
p11
I00
sS'receiver'
p12
I12
sS'content'
p13
NsS'num'
p14
I5
sS'messageId'
p15
I42
sS'createdTime'
p16
S'2014-09-01 09:34:35'
p17
sS'property'
p18
NsbsS'op'
p19
S'recieve'
p20
sS'type'
p21
S'channel'
p22
sS'to'
p23
I12
s.(dp0
S'from'
p1
I12
sS'message'
p2
ccopy_reg
_reconstructor
p3
(cMessage
DownloadRequestMessage
p4
c__builtin__
object
p5
Ntp6
Rp7
(dp8
S'sender'
p9
I12
sS'bb'
p10
I00
sS'receiver'
p11
I8
sS'content'
p12
(dp13
S'segmentFrom'
p14
I40
sS'segmentTo'
p15
I50
sS'segmentDownloadtime'
p16
I2
ssS'num'
p17
I17
sS'messageId'
p18
I4
sS'createdTime'
p19
S'2014-09-01 09:34:35'
p20
sS'property'
p21
NsbsS'op'
p22
S'send'
p23
sS'type'
p24
S'channel'
p25
sS'to'
p26
I8
s.(dp0
S'from'
p1
I12
sS'message'
p2
ccopy_reg
_reconstructor
p3
(cMessage
DownloadRequestMessage
p4
c__builtin__
object
p5
Ntp6
Rp7
(dp8
S'sender'
p9
I12
sS'bb'
p10
I00
sS'receiver'
p11
I10
sS'content'
p12
(dp13
S'segmentFrom'
p14
I170
sS'segmentTo'
p15
I180
sS'segmentDownloadtime'
p16
I2
ssS'num'
p17
I18
sS'messageId'
p18
I17
sS'createdTime'
p19
S'2014-09-01 09:34:35'
p20
sS'property'
p21
NsbsS'op'
p22
S'send'
p23
sS'type'
p24
S'channel'
p25
sS'to'
p26
I10
s.(dp0
S'from'
p1
I12
sS'message'
p2
ccopy_reg
_reconstructor
p3
(cMessage
DownloadRequestMessage
p4
c__builtin__
object
p5
Ntp6
Rp7
(dp8
S'sender'
p9
I12
sS'bb'
p10
I00
sS'receiver'
p11
I11
sS'content'
p12
(dp13
S'segmentFrom'
p14
I330
sS'segmentTo'
p15
I340
sS'segmentDownloadtime'
p16
I2
ssS'num'
p17
I19
sS'messageId'
p18
I33
sS'createdTime'
p19
S'2014-09-01 09:34:35'
p20
sS'property'
p21
NsbsS'op'
p22
S'send'
p23
sS'type'
p24
S'channel'
p25
sS'to'
p26
I11
s.(dp0
S'from'
p1
I7
sS'message'
p2
ccopy_reg
_reconstructor
p3
(cMessage
RequestResponseMessage
p4
c__builtin__
object
p5
Ntp6
Rp7
(dp8
S'status'
p9
I01
sS'sender'
p10
I7
sS'bb'
p11
I00
sS'receiver'
p12
I12
sS'content'
p13
NsS'num'
p14
I3
sS'messageId'
p15
I16
sS'createdTime'
p16
S'2014-09-01 09:34:35'
p17
sS'property'
p18
NsbsS'op'
p19
S'recieve'
p20
sS'type'
p21
S'channel'
p22
sS'to'
p23
I12
s.(dp0
S'from'
p1
I12
sS'message'
p2
ccopy_reg
_reconstructor
p3
(cMessage
DownloadRequestMessage
p4
c__builtin__
object
p5
Ntp6
Rp7
(dp8
S'sender'
p9
I12
sS'bb'
p10
I00
sS'receiver'
p11
I7
sS'content'
p12
(dp13
S'segmentFrom'
p14
I130
sS'segmentTo'
p15
I140
sS'segmentDownloadtime'
p16
I2
ssS'num'
p17
I20
sS'messageId'
p18
I13
sS'createdTime'
p19
S'2014-09-01 09:34:36'
p20
sS'property'
p21
NsbsS'op'
p22
S'send'
p23
sS'type'
p24
S'channel'
p25
sS'to'
p26
I7
s.(dp0
S'from'
p1
I12
sS'message'
p2
ccopy_reg
_reconstructor
p3
(cMessage
DownloadRequestMessage
p4
c__builtin__
object
p5
Ntp6
Rp7
(dp8
S'sender'
p9
I12
sS'bb'
p10
I00
sS'receiver'
p11
I0
sS'content'
p12
(dp13
S'segmentFrom'
p14
I100
sS'segmentTo'
p15
I110
sS'segmentDownloadtime'
p16
I2
ssS'num'
p17
I21
sS'messageId'
p18
I10
sS'createdTime'
p19
S'2014-09-01 09:34:36'
p20
sS'property'
p21
NsbsS'op'
p22
S'send'
p23
sS'type'
p24
S'channel'
p25
sS'to'
p26
I0
s.(dp0
S'from'
p1
I12
sS'message'
p2
ccopy_reg
_reconstructor
p3
(cMessage
DownloadRequestMessage
p4
c__builtin__
object
p5
Ntp6
Rp7
(dp8
S'sender'
p9
I12
sS'bb'
p10
I00
sS'receiver'
p11
I1
sS'content'
p12
(dp13
S'segmentFrom'
p14
I150
sS'segmentTo'
p15
I160
sS'segmentDownloadtime'
p16
I2
ssS'num'
p17
I22
sS'messageId'
p18
I15
sS'createdTime'
p19
S'2014-09-01 09:34:36'
p20
sS'property'
p21
NsbsS'op'
p22
S'send'
p23
sS'type'
p24
S'channel'
p25
sS'to'
p26
I1
s.(dp0
S'from'
p1
I1
sS'message'
p2
ccopy_reg
_reconstructor
p3
(cMessage
RequestResponseMessage
p4
c__builtin__
object
p5
Ntp6
Rp7
(dp8
S'status'
p9
I01
sS'sender'
p10
I1
sS'bb'
p11
I00
sS'receiver'
p12
I12
sS'content'
p13
NsS'num'
p14
I16
sS'messageId'
p15
I0
sS'createdTime'
p16
S'2014-09-01 09:34:36'
p17
sS'property'
p18
NsbsS'op'
p19
S'recieve'
p20
sS'type'
p21
S'channel'
p22
sS'to'
p23
I12
s.(dp0
S'from'
p1
I12
sS'message'
p2
ccopy_reg
_reconstructor
p3
(cMessage
DownloadRequestMessage
p4
c__builtin__
object
p5
Ntp6
Rp7
(dp8
S'sender'
p9
I12
sS'bb'
p10
I00
sS'receiver'
p11
I1
sS'content'
p12
(dp13
S'segmentFrom'
p14
I120
sS'segmentTo'
p15
I130
sS'segmentDownloadtime'
p16
I2
ssS'num'
p17
I23
sS'messageId'
p18
I12
sS'createdTime'
p19
S'2014-09-01 09:34:37'
p20
sS'property'
p21
NsbsS'op'
p22
S'send'
p23
sS'type'
p24
S'channel'
p25
sS'to'
p26
I1
s.(dp0
S'from'
p1
I12
sS'message'
p2
ccopy_reg
_reconstructor
p3
(cMessage
DownloadRequestMessage
p4
c__builtin__
object
p5
Ntp6
Rp7
(dp8
S'sender'
p9
I12
sS'bb'
p10
I00
sS'receiver'
p11
I2
sS'content'
p12
(dp13
S'segmentFrom'
p14
I10
sS'segmentTo'
p15
I20
sS'segmentDownloadtime'
p16
I2
ssS'num'
p17
I24
sS'messageId'
p18
I1
sS'createdTime'
p19
S'2014-09-01 09:34:37'
p20
sS'property'
p21
NsbsS'op'
p22
S'send'
p23
sS'type'
p24
S'channel'
p25
sS'to'
p26
I2
s.(dp0
S'from'
p1
I9
sS'message'
p2
ccopy_reg
_reconstructor
p3
(cMessage
RequestResponseMessage
p4
c__builtin__
object
p5
Ntp6
Rp7
(dp8
S'status'
p9
I01
sS'sender'
p10
I9
sS'bb'
p11
I00
sS'receiver'
p12
I12
sS'content'
p13
NsS'num'
p14
I5
sS'messageId'
p15
I37
sS'createdTime'
p16
S'2014-09-01 09:34:37'
p17
sS'property'
p18
NsbsS'op'
p19
S'recieve'
p20
sS'type'
p21
S'channel'
p22
sS'to'
p23
I12
s.(dp0
S'from'
p1
I12
sS'message'
p2
ccopy_reg
_reconstructor
p3
(cMessage
DownloadRequestMessage
p4
c__builtin__
object
p5
Ntp6
Rp7
(dp8
S'sender'
p9
I12
sS'bb'
p10
I00
sS'receiver'
p11
I9
sS'content'
p12
(dp13
S'segmentFrom'
p14
I320
sS'segmentTo'
p15
I330
sS'segmentDownloadtime'
p16
I2
ssS'num'
p17
I25
sS'messageId'
p18
I32
sS'createdTime'
p19
S'2014-09-01 09:34:37'
p20
sS'property'
p21
NsbsS'op'
p22
S'send'
p23
sS'type'
p24
S'channel'
p25
sS'to'
p26
I9
s.(dp0
S'from'
p1
I12
sS'message'
p2
ccopy_reg
_reconstructor
p3
(cMessage
DownloadRequestMessage
p4
c__builtin__
object
p5
Ntp6
Rp7
(dp8
S'sender'
p9
I12
sS'bb'
p10
I00
sS'receiver'
p11
I3
sS'content'
p12
(dp13
S'segmentFrom'
p14
I260
sS'segmentTo'
p15
I270
sS'segmentDownloadtime'
p16
I2
ssS'num'
p17
I26
sS'messageId'
p18
I26
sS'createdTime'
p19
S'2014-09-01 09:34:37'
p20
sS'property'
p21
NsbsS'op'
p22
S'send'
p23
sS'type'
p24
S'channel'
p25
sS'to'
p26
I3
s.(dp0
S'from'
p1
I8
sS'message'
p2
ccopy_reg
_reconstructor
p3
(cMessage
RequestResponseMessage
p4
c__builtin__
object
p5
Ntp6
Rp7
(dp8
S'status'
p9
I01
sS'sender'
p10
I8
sS'bb'
p11
I00
sS'receiver'
p12
I12
sS'content'
p13
NsS'num'
p14
I19
sS'messageId'
p15
I4
sS'createdTime'
p16
S'2014-09-01 09:34:37'
p17
sS'property'
p18
NsbsS'op'
p19
S'recieve'
p20
sS'type'
p21
S'channel'
p22
sS'to'
p23
I12
s.(dp0
S'from'
p1
I12
sS'message'
p2
ccopy_reg
_reconstructor
p3
(cMessage
DownloadRequestMessage
p4
c__builtin__
object
p5
Ntp6
Rp7
(dp8
S'sender'
p9
I12
sS'bb'
p10
I00
sS'receiver'
p11
I8
sS'content'
p12
(dp13
S'segmentFrom'
p14
I280
sS'segmentTo'
p15
I290
sS'segmentDownloadtime'
p16
I2
ssS'num'
p17
I27
sS'messageId'
p18
I28
sS'createdTime'
p19
S'2014-09-01 09:34:38'
p20
sS'property'
p21
NsbsS'op'
p22
S'send'
p23
sS'type'
p24
S'channel'
p25
sS'to'
p26
I8
s.(dp0
S'from'
p1
I1
sS'message'
p2
ccopy_reg
_reconstructor
p3
(cMessage
RequestResponseMessage
p4
c__builtin__
object
p5
Ntp6
Rp7
(dp8
S'status'
p9
I01
sS'sender'
p10
I1
sS'bb'
p11
I00
sS'receiver'
p12
I12
sS'content'
p13
NsS'num'
p14
I21
sS'messageId'
p15
I15
sS'createdTime'
p16
S'2014-09-01 09:34:38'
p17
sS'property'
p18
NsbsS'op'
p19
S'recieve'
p20
sS'type'
p21
S'channel'
p22
sS'to'
p23
I12
s.(dp0
S'from'
p1
I12
sS'message'
p2
ccopy_reg
_reconstructor
p3
(cMessage
DownloadRequestMessage
p4
c__builtin__
object
p5
Ntp6
Rp7
(dp8
S'sender'
p9
I12
sS'bb'
p10
I00
sS'receiver'
p11
I1
sS'content'
p12
(dp13
S'segmentFrom'
p14
I360
sS'segmentTo'
p15
I370
sS'segmentDownloadtime'
p16
I2
ssS'num'
p17
I28
sS'messageId'
p18
I36
sS'createdTime'
p19
S'2014-09-01 09:34:38'
p20
sS'property'
p21
NsbsS'op'
p22
S'send'
p23
sS'type'
p24
S'channel'
p25
sS'to'
p26
I1
s.(dp0
S'from'
p1
I12
sS'message'
p2
ccopy_reg
_reconstructor
p3
(cMessage
DownloadRequestMessage
p4
c__builtin__
object
p5
Ntp6
Rp7
(dp8
S'sender'
p9
I12
sS'bb'
p10
I00
sS'receiver'
p11
I4
sS'content'
p12
(dp13
S'segmentFrom'
p14
I240
sS'segmentTo'
p15
I250
sS'segmentDownloadtime'
p16
I2
ssS'num'
p17
I29
sS'messageId'
p18
I24
sS'createdTime'
p19
S'2014-09-01 09:34:38'
p20
sS'property'
p21
NsbsS'op'
p22
S'send'
p23
sS'type'
p24
S'channel'
p25
sS'to'
p26
I4
s.(dp0
S'from'
p1
I12
sS'message'
p2
ccopy_reg
_reconstructor
p3
(cMessage
DownloadRequestMessage
p4
c__builtin__
object
p5
Ntp6
Rp7
(dp8
S'sender'
p9
I12
sS'bb'
p10
I00
sS'receiver'
p11
I5
sS'content'
p12
(dp13
S'segmentFrom'
p14
I340
sS'segmentTo'
p15
I350
sS'segmentDownloadtime'
p16
I2
ssS'num'
p17
I30
sS'messageId'
p18
I34
sS'createdTime'
p19
S'2014-09-01 09:34:38'
p20
sS'property'
p21
NsbsS'op'
p22
S'send'
p23
sS'type'
p24
S'channel'
p25
sS'to'
p26
I5
s.(dp0
S'from'
p1
I3
sS'message'
p2
ccopy_reg
_reconstructor
p3
(cMessage
RequestResponseMessage
p4
c__builtin__
object
p5
Ntp6
Rp7
(dp8
S'status'
p9
I01
sS'sender'
p10
I3
sS'bb'
p11
I00
sS'receiver'
p12
I12
sS'content'
p13
NsS'num'
p14
I23
sS'messageId'
p15
I22
sS'createdTime'
p16
S'2014-09-01 09:34:38'
p17
sS'property'
p18
NsbsS'op'
p19
S'recieve'
p20
sS'type'
p21
S'channel'
p22
sS'to'
p23
I12
s.(dp0
S'from'
p1
I12
sS'message'
p2
ccopy_reg
_reconstructor
p3
(cMessage
DownloadRequestMessage
p4
c__builtin__
object
p5
Ntp6
Rp7
(dp8
S'sender'
p9
I12
sS'bb'
p10
I00
sS'receiver'
p11
I3
sS'content'
p12
(dp13
S'segmentFrom'
p14
I230
sS'segmentTo'
p15
I240
sS'segmentDownloadtime'
p16
I2
ssS'num'
p17
I31
sS'messageId'
p18
I23
sS'createdTime'
p19
S'2014-09-01 09:34:39'
p20
sS'property'
p21
NsbsS'op'
p22
S'send'
p23
sS'type'
p24
S'channel'
p25
sS'to'
p26
I3
s.(dp0
S'from'
p1
I12
sS'message'
p2
ccopy_reg
_reconstructor
p3
(cMessage
DownloadRequestMessage
p4
c__builtin__
object
p5
Ntp6
Rp7
(dp8
S'sender'
p9
I12
sS'bb'
p10
I00
sS'receiver'
p11
I6
sS'content'
p12
(dp13
S'segmentFrom'
p14
I20
sS'segmentTo'
p15
I30
sS'segmentDownloadtime'
p16
I2
ssS'num'
p17
I32
sS'messageId'
p18
I2
sS'createdTime'
p19
S'2014-09-01 09:34:39'
p20
sS'property'
p21
NsbsS'op'
p22
S'send'
p23
sS'type'
p24
S'channel'
p25
sS'to'
p26
I6
s.(dp0
S'from'
p1
I12
sS'message'
p2
ccopy_reg
_reconstructor
p3
(cMessage
DownloadRequestMessage
p4
c__builtin__
object
p5
Ntp6
Rp7
(dp8
S'sender'
p9
I12
sS'bb'
p10
I00
sS'receiver'
p11
I7
sS'content'
p12
(dp13
S'segmentFrom'
p14
I210
sS'segmentTo'
p15
I220
sS'segmentDownloadtime'
p16
I2
ssS'num'
p17
I33
sS'messageId'
p18
I21
sS'createdTime'
p19
S'2014-09-01 09:34:39'
p20
sS'property'
p21
NsbsS'op'
p22
S'send'
p23
sS'type'
p24
S'channel'
p25
sS'to'
p26
I7
s.(dp0
S'from'
p1
I10
sS'message'
p2
ccopy_reg
_reconstructor
p3
(cMessage
RequestResponseMessage
p4
c__builtin__
object
p5
Ntp6
Rp7
(dp8
S'status'
p9
I01
sS'sender'
p10
I10
sS'bb'
p11
I00
sS'receiver'
p12
I12
sS'content'
p13
NsS'num'
p14
I10
sS'messageId'
p15
I17
sS'createdTime'
p16
S'2014-09-01 09:34:39'
p17
sS'property'
p18
NsbsS'op'
p19
S'recieve'
p20
sS'type'
p21
S'channel'
p22
sS'to'
p23
I12
s.(dp0
S'from'
p1
I12
sS'message'
p2
ccopy_reg
_reconstructor
p3
(cMessage
DownloadRequestMessage
p4
c__builtin__
object
p5
Ntp6
Rp7
(dp8
S'sender'
p9
I12
sS'bb'
p10
I00
sS'receiver'
p11
I10
sS'content'
p12
(dp13
S'segmentFrom'
p14
I250
sS'segmentTo'
p15
I260
sS'segmentDownloadtime'
p16
I2
ssS'num'
p17
I34
sS'messageId'
p18
I25
sS'createdTime'
p19
S'2014-09-01 09:34:39'
p20
sS'property'
p21
NsbsS'op'
p22
S'send'
p23
sS'type'
p24
S'channel'
p25
sS'to'
p26
I10
s.(dp0
S'from'
p1
I9
sS'message'
p2
ccopy_reg
_reconstructor
p3
(cMessage
RequestResponseMessage
p4
c__builtin__
object
p5
Ntp6
Rp7
(dp8
S'status'
p9
I01
sS'sender'
p10
I9
sS'bb'
p11
I00
sS'receiver'
p12
I12
sS'content'
p13
NsS'num'
p14
I18
sS'messageId'
p15
I32
sS'createdTime'
p16
S'2014-09-01 09:34:39'
p17
sS'property'
p18
NsbsS'op'
p19
S'recieve'
p20
sS'type'
p21
S'channel'
p22
sS'to'
p23
I12
s.(dp0
S'from'
p1
I6
sS'message'
p2
ccopy_reg
_reconstructor
p3
(cMessage
RequestResponseMessage
p4
c__builtin__
object
p5
Ntp6
Rp7
(dp8
S'status'
p9
I01
sS'sender'
p10
I6
sS'bb'
p11
I00
sS'receiver'
p12
I12
sS'content'
p13
NsS'num'
p14
I10
sS'messageId'
p15
I3
sS'createdTime'
p16
S'2014-09-01 09:34:39'
p17
sS'property'
p18
NsbsS'op'
p19
S'recieve'
p20
sS'type'
p21
S'channel'
p22
sS'to'
p23
I12
s.(dp0
S'from'
p1
I3
sS'message'
p2
ccopy_reg
_reconstructor
p3
(cMessage
RequestResponseMessage
p4
c__builtin__
object
p5
Ntp6
Rp7
(dp8
S'status'
p9
I01
sS'sender'
p10
I3
sS'bb'
p11
I00
sS'receiver'
p12
I12
sS'content'
p13
NsS'num'
p14
I37
sS'messageId'
p15
I26
sS'createdTime'
p16
S'2014-09-01 09:34:39'
p17
sS'property'
p18
NsbsS'op'
p19
S'recieve'
p20
sS'type'
p21
S'channel'
p22
sS'to'
p23
I12
s.(dp0
S'from'
p1
I12
sS'message'
p2
ccopy_reg
_reconstructor
p3
(cMessage
DownloadRequestMessage
p4
c__builtin__
object
p5
Ntp6
Rp7
(dp8
S'sender'
p9
I12
sS'bb'
p10
I00
sS'receiver'
p11
I9
sS'content'
p12
(dp13
S'segmentFrom'
p14
I80
sS'segmentTo'
p15
I90
sS'segmentDownloadtime'
p16
I2
ssS'num'
p17
I35
sS'messageId'
p18
I8
sS'createdTime'
p19
S'2014-09-01 09:34:40'
p20
sS'property'
p21
NsbsS'op'
p22
S'send'
p23
sS'type'
p24
S'channel'
p25
sS'to'
p26
I9
s.(dp0
S'from'
p1
I5
sS'message'
p2
ccopy_reg
_reconstructor
p3
(cMessage
RequestResponseMessage
p4
c__builtin__
object
p5
Ntp6
Rp7
(dp8
S'status'
p9
I01
sS'sender'
p10
I5
sS'bb'
p11
I00
sS'receiver'
p12
I12
sS'content'
p13
NsS'num'
p14
I20
sS'messageId'
p15
I18
sS'createdTime'
p16
S'2014-09-01 09:34:38'
p17
sS'property'
p18
NsbsS'op'
p19
S'recieve'
p20
sS'type'
p21
S'channel'
p22
sS'to'
p23
I12
s.(dp0
S'from'
p1
I4
sS'message'
p2
ccopy_reg
_reconstructor
p3
(cMessage
RequestResponseMessage
p4
c__builtin__
object
p5
Ntp6
Rp7
(dp8
S'status'
p9
I01
sS'sender'
p10
I4
sS'bb'
p11
I00
sS'receiver'
p12
I12
sS'content'
p13
NsS'num'
p14
I18
sS'messageId'
p15
I35
sS'createdTime'
p16
S'2014-09-01 09:34:40'
p17
sS'property'
p18
NsbsS'op'
p19
S'recieve'
p20
sS'type'
p21
S'channel'
p22
sS'to'
p23
I12
s.(dp0
S'from'
p1
I12
sS'message'
p2
ccopy_reg
_reconstructor
p3
(cMessage
DownloadRequestMessage
p4
c__builtin__
object
p5
Ntp6
Rp7
(dp8
S'sender'
p9
I12
sS'bb'
p10
I00
sS'receiver'
p11
I3
sS'content'
p12
(dp13
S'segmentFrom'
p14
I290
sS'segmentTo'
p15
I300
sS'segmentDownloadtime'
p16
I2
ssS'num'
p17
I36
sS'messageId'
p18
I29
sS'createdTime'
p19
S'2014-09-01 09:34:40'
p20
sS'property'
p21
NsbsS'op'
p22
S'send'
p23
sS'type'
p24
S'channel'
p25
sS'to'
p26
I3
s.(dp0
S'from'
p1
I12
sS'message'
p2
ccopy_reg
_reconstructor
p3
(cMessage
DownloadRequestMessage
p4
c__builtin__
object
p5
Ntp6
Rp7
(dp8
S'sender'
p9
I12
sS'bb'
p10
I00
sS'receiver'
p11
I4
sS'content'
p12
(dp13
S'segmentFrom'
p14
I380
sS'segmentTo'
p15
I390
sS'segmentDownloadtime'
p16
I2
ssS'num'
p17
I37
sS'messageId'
p18
I38
sS'createdTime'
p19
S'2014-09-01 09:34:41'
p20
sS'property'
p21
NsbsS'op'
p22
S'send'
p23
sS'type'
p24
S'channel'
p25
sS'to'
p26
I4
s.(dp0
S'from'
p1
I12
sS'message'
p2
ccopy_reg
_reconstructor
p3
(cMessage
DownloadRequestMessage
p4
c__builtin__
object
p5
Ntp6
Rp7
(dp8
S'sender'
p9
I12
sS'bb'
p10
I00
sS'receiver'
p11
I5
sS'content'
p12
(dp13
S'segmentFrom'
p14
I390
sS'segmentTo'
p15
I400
sS'segmentDownloadtime'
p16
I2
ssS'num'
p17
I38
sS'messageId'
p18
I39
sS'createdTime'
p19
S'2014-09-01 09:34:41'
p20
sS'property'
p21
NsbsS'op'
p22
S'send'
p23
sS'type'
p24
S'channel'
p25
sS'to'
p26
I5
s.(dp0
S'from'
p1
I2
sS'message'
p2
ccopy_reg
_reconstructor
p3
(cMessage
RequestResponseMessage
p4
c__builtin__
object
p5
Ntp6
Rp7
(dp8
S'status'
p9
I01
sS'sender'
p10
I2
sS'bb'
p11
I00
sS'receiver'
p12
I12
sS'content'
p13
NsS'num'
p14
I22
sS'messageId'
p15
I11
sS'createdTime'
p16
S'2014-09-01 09:34:39'
p17
sS'property'
p18
NsbsS'op'
p19
S'recieve'
p20
sS'type'
p21
S'channel'
p22
sS'to'
p23
I12
s.(dp0
S'from'
p1
I12
sS'message'
p2
ccopy_reg
_reconstructor
p3
(cMessage
DownloadRequestMessage
p4
c__builtin__
object
p5
Ntp6
Rp7
(dp8
S'sender'
p9
I12
sS'bb'
p10
I00
sS'receiver'
p11
I2
sS'content'
p12
(dp13
S'segmentFrom'
p14
I70
sS'segmentTo'
p15
I80
sS'segmentDownloadtime'
p16
I2
ssS'num'
p17
I39
sS'messageId'
p18
I7
sS'createdTime'
p19
S'2014-09-01 09:34:41'
p20
sS'property'
p21
NsbsS'op'
p22
S'send'
p23
sS'type'
p24
S'channel'
p25
sS'to'
p26
I2
s.(dp0
S'from'
p1
I1
sS'message'
p2
ccopy_reg
_reconstructor
p3
(cMessage
RequestResponseMessage
p4
c__builtin__
object
p5
Ntp6
Rp7
(dp8
S'status'
p9
I01
sS'sender'
p10
I1
sS'bb'
p11
I00
sS'receiver'
p12
I12
sS'content'
p13
NsS'num'
p14
I46
sS'messageId'
p15
I12
sS'createdTime'
p16
S'2014-09-01 09:34:39'
p17
sS'property'
p18
NsbsS'op'
p19
S'recieve'
p20
sS'type'
p21
S'channel'
p22
sS'to'
p23
I12
s.(dp0
S'from'
p1
I12
sS'message'
p2
ccopy_reg
_reconstructor
p3
(cMessage
DownloadRequestMessage
p4
c__builtin__
object
p5
Ntp6
Rp7
(dp8
S'sender'
p9
I12
sS'bb'
p10
I00
sS'receiver'
p11
I1
sS'content'
p12
(dp13
S'segmentFrom'
p14
I300
sS'segmentTo'
p15
I310
sS'segmentDownloadtime'
p16
I2
ssS'num'
p17
I40
sS'messageId'
p18
I30
sS'createdTime'
p19
S'2014-09-01 09:34:41'
p20
sS'property'
p21
NsbsS'op'
p22
S'send'
p23
sS'type'
p24
S'channel'
p25
sS'to'
p26
I1
s.(dp0
S'from'
p1
I12
sS'message'
p2
ccopy_reg
_reconstructor
p3
(cMessage
DownloadRequestMessage
p4
c__builtin__
object
p5
Ntp6
Rp7
(dp8
S'sender'
p9
I12
sS'bb'
p10
I00
sS'receiver'
p11
I6
sS'content'
p12
(dp13
S'segmentFrom'
p14
I190
sS'segmentTo'
p15
I200
sS'segmentDownloadtime'
p16
I2
ssS'num'
p17
I41
sS'messageId'
p18
I19
sS'createdTime'
p19
S'2014-09-01 09:34:42'
p20
sS'property'
p21
NsbsS'op'
p22
S'send'
p23
sS'type'
p24
S'channel'
p25
sS'to'
p26
I6
s.(dp0
S'from'
p1
I12
sS'message'
p2
ccopy_reg
_reconstructor
p3
(cMessage
DownloadRequestMessage
p4
c__builtin__
object
p5
Ntp6
Rp7
(dp8
S'sender'
p9
I12
sS'bb'
p10
I00
sS'receiver'
p11
I8
sS'content'
p12
(dp13
S'segmentFrom'
p14
I50
sS'segmentTo'
p15
I60
sS'segmentDownloadtime'
p16
I2
ssS'num'
p17
I42
sS'messageId'
p18
I5
sS'createdTime'
p19
S'2014-09-01 09:34:42'
p20
sS'property'
p21
NsbsS'op'
p22
S'send'
p23
sS'type'
p24
S'channel'
p25
sS'to'
p26
I8
s.(dp0
S'procId'
p1
I12
sS'type'
p2
S'process'
p3
sS'op'
p4
S'startMicroNC'
p5
s.(dp0
S'from'
p1
I0
sS'message'
p2
ccopy_reg
_reconstructor
p3
(cMessage
AdvertisementMessage
p4
c__builtin__
object
p5
Ntp6
Rp7
(dp8
S'sender'
p9
I0
sS'bb'
p10
I00
sS'receiver'
p11
I12
sS'content'
p12
NsS'num'
p13
I12
sS'messageId'
p14
I17
sS'createdTime'
p15
S'2014-09-01 09:36:10'
p16
sS'property'
p17
NsbsS'op'
p18
S'receive'
p19
sS'type'
p20
S'channel'
p21
sS'to'
p22
I12
s.(dp0
S'from'
p1
I0
sS'message'
p2
ccopy_reg
_reconstructor
p3
(cMessage
RequestMessage
p4
c__builtin__
object
p5
Ntp6
Rp7
(dp8
S'sender'
p9
I12
sS'receiver'
p10
I0
sS'content'
p11
NsS'num'
p12
I0
sS'messageId'
p13
I17
sS'createdTime'
p14
S'2014-09-01 09:36:10'
p15
sS'property'
p16
NsbsS'op'
p17
S'send'
p18
sS'type'
p19
S'channel'
p20
sS'to'
p21
I12
s.(dp0
S'from'
p1
I3
sS'message'
p2
ccopy_reg
_reconstructor
p3
(cMessage
AdvertisementMessage
p4
c__builtin__
object
p5
Ntp6
Rp7
(dp8
S'sender'
p9
I3
sS'bb'
p10
I00
sS'receiver'
p11
I12
sS'content'
p12
NsS'num'
p13
I13
sS'messageId'
p14
I12
sS'createdTime'
p15
S'2014-09-01 09:36:11'
p16
sS'property'
p17
NsbsS'op'
p18
S'receive'
p19
sS'type'
p20
S'channel'
p21
sS'to'
p22
I12
s.(dp0
S'from'
p1
I3
sS'message'
p2
ccopy_reg
_reconstructor
p3
(cMessage
RequestMessage
p4
c__builtin__
object
p5
Ntp6
Rp7
(dp8
S'sender'
p9
I12
sS'receiver'
p10
I3
sS'content'
p11
NsS'num'
p12
I1
sS'messageId'
p13
I12
sS'createdTime'
p14
S'2014-09-01 09:36:11'
p15
sS'property'
p16
NsbsS'op'
p17
S'send'
p18
sS'type'
p19
S'channel'
p20
sS'to'
p21
I12
s.(dp0
S'from'
p1
I1
sS'message'
p2
ccopy_reg
_reconstructor
p3
(cMessage
AdvertisementMessage
p4
c__builtin__
object
p5
Ntp6
Rp7
(dp8
S'sender'
p9
I1
sS'bb'
p10
I00
sS'receiver'
p11
I12
sS'content'
p12
NsS'num'
p13
I13
sS'messageId'
p14
I2
sS'createdTime'
p15
S'2014-09-01 09:36:11'
p16
sS'property'
p17
NsbsS'op'
p18
S'receive'
p19
sS'type'
p20
S'channel'
p21
sS'to'
p22
I12
s.(dp0
S'from'
p1
I1
sS'message'
p2
ccopy_reg
_reconstructor
p3
(cMessage
RequestMessage
p4
c__builtin__
object
p5
Ntp6
Rp7
(dp8
S'sender'
p9
I12
sS'receiver'
p10
I1
sS'content'
p11
NsS'num'
p12
I2
sS'messageId'
p13
I2
sS'createdTime'
p14
S'2014-09-01 09:36:12'
p15
sS'property'
p16
NsbsS'op'
p17
S'send'
p18
sS'type'
p19
S'channel'
p20
sS'to'
p21
I12
s.(dp0
S'from'
p1
I5
sS'message'
p2
ccopy_reg
_reconstructor
p3
(cMessage
AdvertisementMessage
p4
c__builtin__
object
p5
Ntp6
Rp7
(dp8
S'sender'
p9
I5
sS'bb'
p10
I00
sS'receiver'
p11
I12
sS'content'
p12
NsS'num'
p13
I13
sS'messageId'
p14
I15
sS'createdTime'
p15
S'2014-09-01 09:36:12'
p16
sS'property'
p17
NsbsS'op'
p18
S'receive'
p19
sS'type'
p20
S'channel'
p21
sS'to'
p22
I12
s.(dp0
S'from'
p1
I5
sS'message'
p2
ccopy_reg
_reconstructor
p3
(cMessage
RequestMessage
p4
c__builtin__
object
p5
Ntp6
Rp7
(dp8
S'sender'
p9
I12
sS'receiver'
p10
I5
sS'content'
p11
NsS'num'
p12
I3
sS'messageId'
p13
I15
sS'createdTime'
p14
S'2014-09-01 09:36:13'
p15
sS'property'
p16
NsbsS'op'
p17
S'send'
p18
sS'type'
p19
S'channel'
p20
sS'to'
p21
I12
s.(dp0
S'from'
p1
I1
sS'message'
p2
ccopy_reg
_reconstructor
p3
(cMessage
SegmentMessage
p4
c__builtin__
object
p5
Ntp6
Rp7
(dp8
S'sender'
p9
I1
sS'bb'
p10
I00
sS'receiver'
p11
I12
sS'content'
p12
NsS'num'
p13
I15
sS'messageId'
p14
I2
sS'createdTime'
p15
S'2014-09-01 09:36:13'
p16
sS'property'
p17
NsbsS'op'
p18
S'receive'
p19
sS'type'
p20
S'channel'
p21
sS'to'
p22
I12
s.(dp0
S'procId'
p1
I12
sS'type'
p2
S'process'
p3
sS'op'
p4
S'receivedSegments'
p5
s.(dp0
S'from'
p1
I9
sS'message'
p2
ccopy_reg
_reconstructor
p3
(cMessage
AdvertisementMessage
p4
c__builtin__
object
p5
Ntp6
Rp7
(dp8
S'sender'
p9
I9
sS'bb'
p10
I00
sS'receiver'
p11
I12
sS'content'
p12
NsS'num'
p13
I18
sS'messageId'
p14
I41
sS'createdTime'
p15
S'2014-09-01 09:36:13'
p16
sS'property'
p17
NsbsS'op'
p18
S'receive'
p19
sS'type'
p20
S'channel'
p21
sS'to'
p22
I12
s.(dp0
S'from'
p1
I9
sS'message'
p2
ccopy_reg
_reconstructor
p3
(cMessage
RequestMessage
p4
c__builtin__
object
p5
Ntp6
Rp7
(dp8
S'sender'
p9
I12
sS'receiver'
p10
I9
sS'content'
p11
NsS'num'
p12
I4
sS'messageId'
p13
I41
sS'createdTime'
p14
S'2014-09-01 09:36:15'
p15
sS'property'
p16
NsbsS'op'
p17
S'send'
p18
sS'type'
p19
S'channel'
p20
sS'to'
p21
I12
s.(dp0
S'from'
p1
I2
sS'message'
p2
ccopy_reg
_reconstructor
p3
(cMessage
AdvertisementMessage
p4
c__builtin__
object
p5
Ntp6
Rp7
(dp8
S'sender'
p9
I2
sS'bb'
p10
I00
sS'receiver'
p11
I12
sS'content'
p12
NsS'num'
p13
I14
sS'messageId'
p14
I23
sS'createdTime'
p15
S'2014-09-01 09:36:13'
p16
sS'property'
p17
NsbsS'op'
p18
S'receive'
p19
sS'type'
p20
S'channel'
p21
sS'to'
p22
I12
s.(dp0
S'from'
p1
I2
sS'message'
p2
ccopy_reg
_reconstructor
p3
(cMessage
RequestMessage
p4
c__builtin__
object
p5
Ntp6
Rp7
(dp8
S'sender'
p9
I12
sS'receiver'
p10
I2
sS'content'
p11
NsS'num'
p12
I5
sS'messageId'
p13
I23
sS'createdTime'
p14
S'2014-09-01 09:36:16'
p15
sS'property'
p16
NsbsS'op'
p17
S'send'
p18
sS'type'
p19
S'channel'
p20
sS'to'
p21
I12
s.(dp0
S'from'
p1
I0
sS'message'
p2
ccopy_reg
_reconstructor
p3
(cMessage
AdvertisementMessage
p4
c__builtin__
object
p5
Ntp6
Rp7
(dp8
S'sender'
p9
I0
sS'bb'
p10
I00
sS'receiver'
p11
I12
sS'content'
p12
NsS'num'
p13
I25
sS'messageId'
p14
I21
sS'createdTime'
p15
S'2014-09-01 09:36:12'
p16
sS'property'
p17
NsbsS'op'
p18
S'receive'
p19
sS'type'
p20
S'channel'
p21
sS'to'
p22
I12
s.(dp0
S'from'
p1
I0
sS'message'
p2
ccopy_reg
_reconstructor
p3
(cMessage
RequestMessage
p4
c__builtin__
object
p5
Ntp6
Rp7
(dp8
S'sender'
p9
I12
sS'receiver'
p10
I0
sS'content'
p11
NsS'num'
p12
I6
sS'messageId'
p13
I21
sS'createdTime'
p14
S'2014-09-01 09:36:16'
p15
sS'property'
p16
NsbsS'op'
p17
S'send'
p18
sS'type'
p19
S'channel'
p20
sS'to'
p21
I12
s.(dp0
S'from'
p1
I3
sS'message'
p2
ccopy_reg
_reconstructor
p3
(cMessage
AdvertisementMessage
p4
c__builtin__
object
p5
Ntp6
Rp7
(dp8
S'sender'
p9
I3
sS'bb'
p10
I00
sS'receiver'
p11
I12
sS'content'
p12
NsS'num'
p13
I28
sS'messageId'
p14
I1
sS'createdTime'
p15
S'2014-09-01 09:36:13'
p16
sS'property'
p17
NsbsS'op'
p18
S'receive'
p19
sS'type'
p20
S'channel'
p21
sS'to'
p22
I12
s.(dp0
S'from'
p1
I3
sS'message'
p2
ccopy_reg
_reconstructor
p3
(cMessage
RequestMessage
p4
c__builtin__
object
p5
Ntp6
Rp7
(dp8
S'sender'
p9
I12
sS'receiver'
p10
I3
sS'content'
p11
NsS'num'
p12
I7
sS'messageId'
p13
I1
sS'createdTime'
p14
S'2014-09-01 09:36:16'
p15
sS'property'
p16
NsbsS'op'
p17
S'send'
p18
sS'type'
p19
S'channel'
p20
sS'to'
p21
I12
s.(dp0
S'from'
p1
I1
sS'message'
p2
ccopy_reg
_reconstructor
p3
(cMessage
AdvertisementMessage
p4
c__builtin__
object
p5
Ntp6
Rp7
(dp8
S'sender'
p9
I1
sS'bb'
p10
I00
sS'receiver'
p11
I12
sS'content'
p12
NsS'num'
p13
I28
sS'messageId'
p14
I0
sS'createdTime'
p15
S'2014-09-01 09:36:14'
p16
sS'property'
p17
NsbsS'op'
p18
S'receive'
p19
sS'type'
p20
S'channel'
p21
sS'to'
p22
I12
s.(dp0
S'from'
p1
I1
sS'message'
p2
ccopy_reg
_reconstructor
p3
(cMessage
RequestMessage
p4
c__builtin__
object
p5
Ntp6
Rp7
(dp8
S'sender'
p9
I12
sS'receiver'
p10
I1
sS'content'
p11
NsS'num'
p12
I8
sS'messageId'
p13
I0
sS'createdTime'
p14
S'2014-09-01 09:36:17'
p15
sS'property'
p16
NsbsS'op'
p17
S'send'
p18
sS'type'
p19
S'channel'
p20
sS'to'
p21
I12
s.(dp0
S'from'
p1
I7
sS'message'
p2
ccopy_reg
_reconstructor
p3
(cMessage
AdvertisementMessage
p4
c__builtin__
object
p5
Ntp6
Rp7
(dp8
S'sender'
p9
I7
sS'bb'
p10
I00
sS'receiver'
p11
I12
sS'content'
p12
NsS'num'
p13
I17
sS'messageId'
p14
I42
sS'createdTime'
p15
S'2014-09-01 09:36:17'
p16
sS'property'
p17
NsbsS'op'
p18
S'receive'
p19
sS'type'
p20
S'channel'
p21
sS'to'
p22
I12
s.(dp0
S'from'
p1
I7
sS'message'
p2
ccopy_reg
_reconstructor
p3
(cMessage
RequestMessage
p4
c__builtin__
object
p5
Ntp6
Rp7
(dp8
S'sender'
p9
I12
sS'receiver'
p10
I7
sS'content'
p11
NsS'num'
p12
I9
sS'messageId'
p13
I42
sS'createdTime'
p14
S'2014-09-01 09:36:18'
p15
sS'property'
p16
NsbsS'op'
p17
S'send'
p18
sS'type'
p19
S'channel'
p20
sS'to'
p21
I12
s.(dp0
S'from'
p1
I4
sS'message'
p2
ccopy_reg
_reconstructor
p3
(cMessage
AdvertisementMessage
p4
c__builtin__
object
p5
Ntp6
Rp7
(dp8
S'sender'
p9
I4
sS'bb'
p10
I00
sS'receiver'
p11
I12
sS'content'
p12
NsS'num'
p13
I15
sS'messageId'
p14
I6
sS'createdTime'
p15
S'2014-09-01 09:36:12'
p16
sS'property'
p17
NsbsS'op'
p18
S'receive'
p19
sS'type'
p20
S'channel'
p21
sS'to'
p22
I12
s.(dp0
S'from'
p1
I4
sS'message'
p2
ccopy_reg
_reconstructor
p3
(cMessage
RequestMessage
p4
c__builtin__
object
p5
Ntp6
Rp7
(dp8
S'sender'
p9
I12
sS'receiver'
p10
I4
sS'content'
p11
NsS'num'
p12
I10
sS'messageId'
p13
I6
sS'createdTime'
p14
S'2014-09-01 09:36:18'
p15
sS'property'
p16
NsbsS'op'
p17
S'send'
p18
sS'type'
p19
S'channel'
p20
sS'to'
p21
I12
s.(dp0
S'from'
p1
I13
sS'message'
p2
ccopy_reg
_reconstructor
p3
(cMessage
DownloadRequestMessage
p4
c__builtin__
object
p5
Ntp6
Rp7
(dp8
S'sender'
p9
I13
sS'bb'
p10
I00
sS'receiver'
p11
I12
sS'content'
p12
(dp13
S'segmentFrom'
p14
I130
sS'segmentTo'
p15
I140
sS'segmentDownloadtime'
p16
I2
ssS'num'
p17
I24
sS'messageId'
p18
I13
sS'createdTime'
p19
S'2014-09-01 09:36:17'
p20
sS'property'
p21
NsbsS'op'
p22
S'receive'
p23
sS'type'
p24
S'channel'
p25
sS'to'
p26
I12
s.(dp0
S'queue'
p1
S'DwnReqQ'
p2
sS'procId'
p3
I12
sS'message'
p4
ccopy_reg
_reconstructor
p5
(cMessage
DownloadRequestMessage
p6
c__builtin__
object
p7
Ntp8
Rp9
(dp10
S'sender'
p11
I13
sS'bb'
p12
I00
sS'receiver'
p13
I12
sS'content'
p14
(dp15
S'segmentFrom'
p16
I130
sS'segmentTo'
p17
I140
sS'segmentDownloadtime'
p18
I2
ssS'num'
p19
I24
sS'messageId'
p20
I13
sS'createdTime'
p21
S'2014-09-01 09:36:17'
p22
sS'property'
p23
NsbsS'type'
p24
S'process'
p25
sS'op'
p26
S'push'
p27
s.(dp0
S'queue'
p1
S'DwnReqQ'
p2
sS'procId'
p3
I12
sS'message'
p4
ccopy_reg
_reconstructor
p5
(cMessage
DownloadRequestMessage
p6
c__builtin__
object
p7
Ntp8
Rp9
(dp10
S'sender'
p11
I13
sS'bb'
p12
I00
sS'receiver'
p13
I12
sS'content'
p14
(dp15
S'segmentFrom'
p16
I130
sS'segmentTo'
p17
I140
sS'segmentDownloadtime'
p18
I2
ssS'num'
p19
I24
sS'messageId'
p20
I13
sS'createdTime'
p21
S'2014-09-01 09:36:17'
p22
sS'property'
p23
NsbsS'type'
p24
S'process'
p25
sS'op'
p26
S'pop'
p27
s.(dp0
S'procId'
p1
I12
sS'message'
p2
ccopy_reg
_reconstructor
p3
(cMessage
DownloadRequestMessage
p4
c__builtin__
object
p5
Ntp6
Rp7
(dp8
S'sender'
p9
I13
sS'bb'
p10
I00
sS'receiver'
p11
I12
sS'content'
p12
(dp13
S'segmentFrom'
p14
I130
sS'segmentTo'
p15
I140
sS'segmentDownloadtime'
p16
I2
ssS'num'
p17
I24
sS'messageId'
p18
I13
sS'createdTime'
p19
S'2014-09-01 09:36:17'
p20
sS'property'
p21
NsbsS'type'
p22
S'process'
p23
sS'op'
p24
S'startDownloading'
p25
s.(dp0
S'procId'
p1
I12
sS'message'
p2
ccopy_reg
_reconstructor
p3
(cMessage
DownloadRequestMessage
p4
c__builtin__
object
p5
Ntp6
Rp7
(dp8
S'sender'
p9
I13
sS'bb'
p10
I00
sS'receiver'
p11
I12
sS'content'
p12
(dp13
S'segmentFrom'
p14
I130
sS'segmentTo'
p15
I140
sS'segmentDownloadtime'
p16
I2
ssS'num'
p17
I24
sS'messageId'
p18
I13
sS'createdTime'
p19
S'2014-09-01 09:36:17'
p20
sS'property'
p21
NsbsS'type'
p22
S'process'
p23
sS'op'
p24
S'stopDownloading'
p25
s.(dp0
S'queue'
p1
S'AdQ'
p2
sS'procId'
p3
I12
sS'message'
p4
ccopy_reg
_reconstructor
p5
(cMessage
DownloadRequestMessage
p6
c__builtin__
object
p7
Ntp8
Rp9
(dp10
S'sender'
p11
I13
sS'bb'
p12
I00
sS'receiver'
p13
I12
sS'content'
p14
(dp15
S'segmentFrom'
p16
I130
sS'segmentTo'
p17
I140
sS'segmentDownloadtime'
p18
I2
ssS'num'
p19
I24
sS'messageId'
p20
I13
sS'createdTime'
p21
S'2014-09-01 09:36:17'
p22
sS'property'
p23
NsbsS'type'
p24
S'process'
p25
sS'op'
p26
S'push'
p27
s.(dp0
S'from'
p1
I12
sS'message'
p2
ccopy_reg
_reconstructor
p3
(cMessage
RequestResponseMessage
p4
c__builtin__
object
p5
Ntp6
Rp7
(dp8
S'status'
p9
I01
sS'sender'
p10
I12
sS'bb'
p11
I00
sS'receiver'
p12
I13
sS'content'
p13
NsS'num'
p14
I11
sS'messageId'
p15
I13
sS'createdTime'
p16
S'2014-09-01 09:36:19'
p17
sS'property'
p18
NsbsS'op'
p19
S'sendConfirmation'
p20
sS'type'
p21
S'channel'
p22
sS'to'
p23
I13
s.(dp0
S'queue'
p1
S'AdQ'
p2
sS'procId'
p3
I12
sS'message'
p4
ccopy_reg
_reconstructor
p5
(cMessage
DownloadRequestMessage
p6
c__builtin__
object
p7
Ntp8
Rp9
(dp10
S'sender'
p11
I13
sS'bb'
p12
I00
sS'receiver'
p13
I12
sS'content'
p14
(dp15
S'segmentFrom'
p16
I130
sS'segmentTo'
p17
I140
sS'segmentDownloadtime'
p18
I2
ssS'num'
p19
I24
sS'messageId'
p20
I13
sS'createdTime'
p21
S'2014-09-01 09:36:17'
p22
sS'property'
p23
NsbsS'type'
p24
S'process'
p25
sS'op'
p26
S'pop'
p27
s.(dp0
S'from'
p1
I12
sS'message'
p2
ccopy_reg
_reconstructor
p3
(cMessage
AdvertisementMessage
p4
c__builtin__
object
p5
Ntp6
Rp7
(dp8
S'sender'
p9
I12
sS'bb'
p10
I00
sS'receiver'
p11
I0
sS'content'
p12
NsS'num'
p13
I12
sS'messageId'
p14
I13
sS'createdTime'
p15
S'2014-09-01 09:36:20'
p16
sS'property'
p17
NsbsS'op'
p18
S'bcast'
p19
sS'type'
p20
S'channel'
p21
sS'to'
p22
I0
s.(dp0
S'from'
p1
I12
sS'message'
p2
ccopy_reg
_reconstructor
p3
(cMessage
AdvertisementMessage
p4
c__builtin__
object
p5
Ntp6
Rp7
(dp8
S'sender'
p9
I12
sS'bb'
p10
I00
sS'receiver'
p11
I1
sS'content'
p12
NsS'num'
p13
I13
sS'messageId'
p14
I13
sS'createdTime'
p15
S'2014-09-01 09:36:20'
p16
sS'property'
p17
NsbsS'op'
p18
S'bcast'
p19
sS'type'
p20
S'channel'
p21
sS'to'
p22
I1
s.(dp0
S'from'
p1
I12
sS'message'
p2
ccopy_reg
_reconstructor
p3
(cMessage
AdvertisementMessage
p4
c__builtin__
object
p5
Ntp6
Rp7
(dp8
S'sender'
p9
I12
sS'bb'
p10
I00
sS'receiver'
p11
I2
sS'content'
p12
NsS'num'
p13
I14
sS'messageId'
p14
I13
sS'createdTime'
p15
S'2014-09-01 09:36:20'
p16
sS'property'
p17
NsbsS'op'
p18
S'bcast'
p19
sS'type'
p20
S'channel'
p21
sS'to'
p22
I2
s.(dp0
S'from'
p1
I12
sS'message'
p2
ccopy_reg
_reconstructor
p3
(cMessage
AdvertisementMessage
p4
c__builtin__
object
p5
Ntp6
Rp7
(dp8
S'sender'
p9
I12
sS'bb'
p10
I00
sS'receiver'
p11
I3
sS'content'
p12
NsS'num'
p13
I15
sS'messageId'
p14
I13
sS'createdTime'
p15
S'2014-09-01 09:36:20'
p16
sS'property'
p17
NsbsS'op'
p18
S'bcast'
p19
sS'type'
p20
S'channel'
p21
sS'to'
p22
I3
s.(dp0
S'from'
p1
I12
sS'message'
p2
ccopy_reg
_reconstructor
p3
(cMessage
AdvertisementMessage
p4
c__builtin__
object
p5
Ntp6
Rp7
(dp8
S'sender'
p9
I12
sS'bb'
p10
I00
sS'receiver'
p11
I4
sS'content'
p12
NsS'num'
p13
I16
sS'messageId'
p14
I13
sS'createdTime'
p15
S'2014-09-01 09:36:20'
p16
sS'property'
p17
NsbsS'op'
p18
S'bcast'
p19
sS'type'
p20
S'channel'
p21
sS'to'
p22
I4
s.(dp0
S'from'
p1
I12
sS'message'
p2
ccopy_reg
_reconstructor
p3
(cMessage
AdvertisementMessage
p4
c__builtin__
object
p5
Ntp6
Rp7
(dp8
S'sender'
p9
I12
sS'bb'
p10
I00
sS'receiver'
p11
I5
sS'content'
p12
NsS'num'
p13
I17
sS'messageId'
p14
I13
sS'createdTime'
p15
S'2014-09-01 09:36:20'
p16
sS'property'
p17
NsbsS'op'
p18
S'bcast'
p19
sS'type'
p20
S'channel'
p21
sS'to'
p22
I5
s.(dp0
S'from'
p1
I12
sS'message'
p2
ccopy_reg
_reconstructor
p3
(cMessage
AdvertisementMessage
p4
c__builtin__
object
p5
Ntp6
Rp7
(dp8
S'sender'
p9
I12
sS'bb'
p10
I00
sS'receiver'
p11
I6
sS'content'
p12
NsS'num'
p13
I18
sS'messageId'
p14
I13
sS'createdTime'
p15
S'2014-09-01 09:36:20'
p16
sS'property'
p17
NsbsS'op'
p18
S'bcast'
p19
sS'type'
p20
S'channel'
p21
sS'to'
p22
I6
s.(dp0
S'from'
p1
I12
sS'message'
p2
ccopy_reg
_reconstructor
p3
(cMessage
AdvertisementMessage
p4
c__builtin__
object
p5
Ntp6
Rp7
(dp8
S'sender'
p9
I12
sS'bb'
p10
I00
sS'receiver'
p11
I7
sS'content'
p12
NsS'num'
p13
I19
sS'messageId'
p14
I13
sS'createdTime'
p15
S'2014-09-01 09:36:20'
p16
sS'property'
p17
NsbsS'op'
p18
S'bcast'
p19
sS'type'
p20
S'channel'
p21
sS'to'
p22
I7
s.(dp0
S'from'
p1
I12
sS'message'
p2
ccopy_reg
_reconstructor
p3
(cMessage
AdvertisementMessage
p4
c__builtin__
object
p5
Ntp6
Rp7
(dp8
S'sender'
p9
I12
sS'bb'
p10
I00
sS'receiver'
p11
I8
sS'content'
p12
NsS'num'
p13
I20
sS'messageId'
p14
I13
sS'createdTime'
p15
S'2014-09-01 09:36:20'
p16
sS'property'
p17
NsbsS'op'
p18
S'bcast'
p19
sS'type'
p20
S'channel'
p21
sS'to'
p22
I8
s.(dp0
S'from'
p1
I12
sS'message'
p2
ccopy_reg
_reconstructor
p3
(cMessage
AdvertisementMessage
p4
c__builtin__
object
p5
Ntp6
Rp7
(dp8
S'sender'
p9
I12
sS'bb'
p10
I00
sS'receiver'
p11
I9
sS'content'
p12
NsS'num'
p13
I21
sS'messageId'
p14
I13
sS'createdTime'
p15
S'2014-09-01 09:36:20'
p16
sS'property'
p17
NsbsS'op'
p18
S'bcast'
p19
sS'type'
p20
S'channel'
p21
sS'to'
p22
I9
s.(dp0
S'from'
p1
I12
sS'message'
p2
ccopy_reg
_reconstructor
p3
(cMessage
AdvertisementMessage
p4
c__builtin__
object
p5
Ntp6
Rp7
(dp8
S'sender'
p9
I12
sS'bb'
p10
I00
sS'receiver'
p11
I10
sS'content'
p12
NsS'num'
p13
I22
sS'messageId'
p14
I13
sS'createdTime'
p15
S'2014-09-01 09:36:20'
p16
sS'property'
p17
NsbsS'op'
p18
S'bcast'
p19
sS'type'
p20
S'channel'
p21
sS'to'
p22
I10
s.(dp0
S'from'
p1
I12
sS'message'
p2
ccopy_reg
_reconstructor
p3
(cMessage
AdvertisementMessage
p4
c__builtin__
object
p5
Ntp6
Rp7
(dp8
S'sender'
p9
I12
sS'bb'
p10
I00
sS'receiver'
p11
I11
sS'content'
p12
NsS'num'
p13
I23
sS'messageId'
p14
I13
sS'createdTime'
p15
S'2014-09-01 09:36:20'
p16
sS'property'
p17
NsbsS'op'
p18
S'bcast'
p19
sS'type'
p20
S'channel'
p21
sS'to'
p22
I11
s.(dp0
S'from'
p1
I4
sS'message'
p2
ccopy_reg
_reconstructor
p3
(cMessage
AdvertisementMessage
p4
c__builtin__
object
p5
Ntp6
Rp7
(dp8
S'sender'
p9
I4
sS'bb'
p10
I00
sS'receiver'
p11
I12
sS'content'
p12
NsS'num'
p13
I31
sS'messageId'
p14
I40
sS'createdTime'
p15
S'2014-09-01 09:36:15'
p16
sS'property'
p17
NsbsS'op'
p18
S'receive'
p19
sS'type'
p20
S'channel'
p21
sS'to'
p22
I12
s.(dp0
S'from'
p1
I4
sS'message'
p2
ccopy_reg
_reconstructor
p3
(cMessage
RequestMessage
p4
c__builtin__
object
p5
Ntp6
Rp7
(dp8
S'sender'
p9
I12
sS'receiver'
p10
I4
sS'content'
p11
NsS'num'
p12
I24
sS'messageId'
p13
I40
sS'createdTime'
p14
S'2014-09-01 09:36:21'
p15
sS'property'
p16
NsbsS'op'
p17
S'send'
p18
sS'type'
p19
S'channel'
p20
sS'to'
p21
I12
s.(dp0
S'from'
p1
I8
sS'message'
p2
ccopy_reg
_reconstructor
p3
(cMessage
RequestMessage
p4
c__builtin__
object
p5
Ntp6
Rp7
(dp8
S'sender'
p9
I8
sS'bb'
p10
I00
sS'receiver'
p11
I12
sS'content'
p12
NsS'num'
p13
I7
sS'messageId'
p14
I13
sS'createdTime'
p15
S'2014-09-01 09:36:21'
p16
sS'property'
p17
NsbsS'op'
p18
S'receive'
p19
sS'type'
p20
S'channel'
p21
sS'to'
p22
I12
s.(dp0
S'queue'
p1
S'ReQ'
p2
sS'procId'
p3
I12
sS'message'
p4
ccopy_reg
_reconstructor
p5
(cMessage
RequestMessage
p6
c__builtin__
object
p7
Ntp8
Rp9
(dp10
S'sender'
p11
I8
sS'bb'
p12
I00
sS'receiver'
p13
I12
sS'content'
p14
NsS'num'
p15
I7
sS'messageId'
p16
I13
sS'createdTime'
p17
S'2014-09-01 09:36:21'
p18
sS'property'
p19
NsbsS'type'
p20
S'process'
p21
sS'op'
p22
S'push'
p23
s.(dp0
S'from'
p1
I3
sS'message'
p2
ccopy_reg
_reconstructor
p3
(cMessage
SegmentMessage
p4
c__builtin__
object
p5
Ntp6
Rp7
(dp8
S'sender'
p9
I3
sS'bb'
p10
I00
sS'receiver'
p11
I12
sS'content'
p12
NsS'num'
p13
I39
sS'messageId'
p14
I12
sS'createdTime'
p15
S'2014-09-01 09:36:19'
p16
sS'property'
p17
NsbsS'op'
p18
S'receive'
p19
sS'type'
p20
S'channel'
p21
sS'to'
p22
I12
s.(dp0
S'procId'
p1
I12
sS'type'
p2
S'process'
p3
sS'op'
p4
S'receivedSegments'
p5
s.(dp0
S'from'
p1
I3
sS'message'
p2
ccopy_reg
_reconstructor
p3
(cMessage
AdvertisementMessage
p4
c__builtin__
object
p5
Ntp6
Rp7
(dp8
S'sender'
p9
I3
sS'bb'
p10
I00
sS'receiver'
p11
I12
sS'content'
p12
NsS'num'
p13
I52
sS'messageId'
p14
I34
sS'createdTime'
p15
S'2014-09-01 09:36:20'
p16
sS'property'
p17
NsbsS'op'
p18
S'receive'
p19
sS'type'
p20
S'channel'
p21
sS'to'
p22
I12
s.(dp0
S'from'
p1
I3
sS'message'
p2
ccopy_reg
_reconstructor
p3
(cMessage
RequestMessage
p4
c__builtin__
object
p5
Ntp6
Rp7
(dp8
S'sender'
p9
I12
sS'receiver'
p10
I3
sS'content'
p11
NsS'num'
p12
I25
sS'messageId'
p13
I34
sS'createdTime'
p14
S'2014-09-01 09:36:22'
p15
sS'property'
p16
NsbsS'op'
p17
S'send'
p18
sS'type'
p19
S'channel'
p20
sS'to'
p21
I12
s.(dp0
S'queue'
p1
S'ReqQ'
p2
sS'procId'
p3
I12
sS'message'
p4
ccopy_reg
_reconstructor
p5
(cMessage
RequestMessage
p6
c__builtin__
object
p7
Ntp8
Rp9
(dp10
S'sender'
p11
I8
sS'bb'
p12
I00
sS'receiver'
p13
I12
sS'content'
p14
NsS'num'
p15
I7
sS'messageId'
p16
I13
sS'createdTime'
p17
S'2014-09-01 09:36:21'
p18
sS'property'
p19
NsbsS'type'
p20
S'process'
p21
sS'op'
p22
S'pop'
p23
s.(dp0
S'from'
p1
I7
sS'message'
p2
ccopy_reg
_reconstructor
p3
(cMessage
AdvertisementMessage
p4
c__builtin__
object
p5
Ntp6
Rp7
(dp8
S'sender'
p9
I7
sS'bb'
p10
I00
sS'receiver'
p11
I12
sS'content'
p12
NsS'num'
p13
I31
sS'messageId'
p14
I35
sS'createdTime'
p15
S'2014-09-01 09:36:20'
p16
sS'property'
p17
NsbsS'op'
p18
S'receive'
p19
sS'type'
p20
S'channel'
p21
sS'to'
p22
I12
s.(dp0
S'from'
p1
I7
sS'message'
p2
ccopy_reg
_reconstructor
p3
(cMessage
RequestMessage
p4
c__builtin__
object
p5
Ntp6
Rp7
(dp8
S'sender'
p9
I12
sS'receiver'
p10
I7
sS'content'
p11
NsS'num'
p12
I27
sS'messageId'
p13
I35
sS'createdTime'
p14
S'2014-09-01 09:36:23'
p15
sS'property'
p16
NsbsS'op'
p17
S'send'
p18
sS'type'
p19
S'channel'
p20
sS'to'
p21
I12
s.(dp0
S'from'
p1
I11
sS'message'
p2
ccopy_reg
_reconstructor
p3
(cMessage
AdvertisementMessage
p4
c__builtin__
object
p5
Ntp6
Rp7
(dp8
S'sender'
p9
I11
sS'bb'
p10
I00
sS'receiver'
p11
I12
sS'content'
p12
NsS'num'
p13
I24
sS'messageId'
p14
I25
sS'createdTime'
p15
S'2014-09-01 09:36:20'
p16
sS'property'
p17
NsbsS'op'
p18
S'receive'
p19
sS'type'
p20
S'channel'
p21
sS'to'
p22
I12
s.(dp0
S'from'
p1
I11
sS'message'
p2
ccopy_reg
_reconstructor
p3
(cMessage
RequestMessage
p4
c__builtin__
object
p5
Ntp6
Rp7
(dp8
S'sender'
p9
I12
sS'receiver'
p10
I11
sS'content'
p11
NsS'num'
p12
I28
sS'messageId'
p13
I25
sS'createdTime'
p14
S'2014-09-01 09:36:24'
p15
sS'property'
p16
NsbsS'op'
p17
S'send'
p18
sS'type'
p19
S'channel'
p20
sS'to'
p21
I12
s.(dp0
S'from'
p1
I6
sS'message'
p2
ccopy_reg
_reconstructor
p3
(cMessage
AdvertisementMessage
p4
c__builtin__
object
p5
Ntp6
Rp7
(dp8
S'sender'
p9
I6
sS'bb'
p10
I00
sS'receiver'
p11
I12
sS'content'
p12
NsS'num'
p13
I20
sS'messageId'
p14
I27
sS'createdTime'
p15
S'2014-09-01 09:36:15'
p16
sS'property'
p17
NsbsS'op'
p18
S'receive'
p19
sS'type'
p20
S'channel'
p21
sS'to'
p22
I12
s.(dp0
S'from'
p1
I6
sS'message'
p2
ccopy_reg
_reconstructor
p3
(cMessage
RequestMessage
p4
c__builtin__
object
p5
Ntp6
Rp7
(dp8
S'sender'
p9
I12
sS'receiver'
p10
I6
sS'content'
p11
NsS'num'
p12
I29
sS'messageId'
p13
I27
sS'createdTime'
p14
S'2014-09-01 09:36:25'
p15
sS'property'
p16
NsbsS'op'
p17
S'send'
p18
sS'type'
p19
S'channel'
p20
sS'to'
p21
I12
s.(dp0
S'from'
p1
I1
sS'message'
p2
ccopy_reg
_reconstructor
p3
(cMessage
AdvertisementMessage
p4
c__builtin__
object
p5
Ntp6
Rp7
(dp8
S'sender'
p9
I1
sS'bb'
p10
I00
sS'receiver'
p11
I12
sS'content'
p12
NsS'num'
p13
I46
sS'messageId'
p14
I32
sS'createdTime'
p15
S'2014-09-01 09:36:19'
p16
sS'property'
p17
NsbsS'op'
p18
S'receive'
p19
sS'type'
p20
S'channel'
p21
sS'to'
p22
I12
s.(dp0
S'from'
p1
I1
sS'message'
p2
ccopy_reg
_reconstructor
p3
(cMessage
RequestMessage
p4
c__builtin__
object
p5
Ntp6
Rp7
(dp8
S'sender'
p9
I12
sS'receiver'
p10
I1
sS'content'
p11
NsS'num'
p12
I30
sS'messageId'
p13
I32
sS'createdTime'
p14
S'2014-09-01 09:36:25'
p15
sS'property'
p16
NsbsS'op'
p17
S'send'
p18
sS'type'
p19
S'channel'
p20
sS'to'
p21
I12
s.(dp0
S'from'
p1
I13
sS'message'
p2
ccopy_reg
_reconstructor
p3
(cMessage
DownloadRequestMessage
p4
c__builtin__
object
p5
Ntp6
Rp7
(dp8
S'sender'
p9
I13
sS'bb'
p10
I00
sS'receiver'
p11
I12
sS'content'
p12
(dp13
S'segmentFrom'
p14
I280
sS'segmentTo'
p15
I290
sS'segmentDownloadtime'
p16
I2
ssS'num'
p17
I36
sS'messageId'
p18
I28
sS'createdTime'
p19
S'2014-09-01 09:36:21'
p20
sS'property'
p21
NsbsS'op'
p22
S'receive'
p23
sS'type'
p24
S'channel'
p25
sS'to'
p26
I12
s.(dp0
S'queue'
p1
S'DwnReqQ'
p2
sS'procId'
p3
I12
sS'message'
p4
ccopy_reg
_reconstructor
p5
(cMessage
DownloadRequestMessage
p6
c__builtin__
object
p7
Ntp8
Rp9
(dp10
S'sender'
p11
I13
sS'bb'
p12
I00
sS'receiver'
p13
I12
sS'content'
p14
(dp15
S'segmentFrom'
p16
I280
sS'segmentTo'
p17
I290
sS'segmentDownloadtime'
p18
I2
ssS'num'
p19
I36
sS'messageId'
p20
I28
sS'createdTime'
p21
S'2014-09-01 09:36:21'
p22
sS'property'
p23
NsbsS'type'
p24
S'process'
p25
sS'op'
p26
S'push'
p27
s.(dp0
S'queue'
p1
S'DwnReqQ'
p2
sS'procId'
p3
I12
sS'message'
p4
ccopy_reg
_reconstructor
p5
(cMessage
DownloadRequestMessage
p6
c__builtin__
object
p7
Ntp8
Rp9
(dp10
S'sender'
p11
I13
sS'bb'
p12
I00
sS'receiver'
p13
I12
sS'content'
p14
(dp15
S'segmentFrom'
p16
I280
sS'segmentTo'
p17
I290
sS'segmentDownloadtime'
p18
I2
ssS'num'
p19
I36
sS'messageId'
p20
I28
sS'createdTime'
p21
S'2014-09-01 09:36:21'
p22
sS'property'
p23
NsbsS'type'
p24
S'process'
p25
sS'op'
p26
S'pop'
p27
s.(dp0
S'procId'
p1
I12
sS'message'
p2
ccopy_reg
_reconstructor
p3
(cMessage
DownloadRequestMessage
p4
c__builtin__
object
p5
Ntp6
Rp7
(dp8
S'sender'
p9
I13
sS'bb'
p10
I00
sS'receiver'
p11
I12
sS'content'
p12
(dp13
S'segmentFrom'
p14
I280
sS'segmentTo'
p15
I290
sS'segmentDownloadtime'
p16
I2
ssS'num'
p17
I36
sS'messageId'
p18
I28
sS'createdTime'
p19
S'2014-09-01 09:36:21'
p20
sS'property'
p21
NsbsS'type'
p22
S'process'
p23
sS'op'
p24
S'startDownloading'
p25
s.(dp0
S'procId'
p1
I12
sS'message'
p2
ccopy_reg
_reconstructor
p3
(cMessage
DownloadRequestMessage
p4
c__builtin__
object
p5
Ntp6
Rp7
(dp8
S'sender'
p9
I13
sS'bb'
p10
I00
sS'receiver'
p11
I12
sS'content'
p12
(dp13
S'segmentFrom'
p14
I280
sS'segmentTo'
p15
I290
sS'segmentDownloadtime'
p16
I2
ssS'num'
p17
I36
sS'messageId'
p18
I28
sS'createdTime'
p19
S'2014-09-01 09:36:21'
p20
sS'property'
p21
NsbsS'type'
p22
S'process'
p23
sS'op'
p24
S'stopDownloading'
p25
s.(dp0
S'queue'
p1
S'AdQ'
p2
sS'procId'
p3
I12
sS'message'
p4
ccopy_reg
_reconstructor
p5
(cMessage
DownloadRequestMessage
p6
c__builtin__
object
p7
Ntp8
Rp9
(dp10
S'sender'
p11
I13
sS'bb'
p12
I00
sS'receiver'
p13
I12
sS'content'
p14
(dp15
S'segmentFrom'
p16
I280
sS'segmentTo'
p17
I290
sS'segmentDownloadtime'
p18
I2
ssS'num'
p19
I36
sS'messageId'
p20
I28
sS'createdTime'
p21
S'2014-09-01 09:36:21'
p22
sS'property'
p23
NsbsS'type'
p24
S'process'
p25
sS'op'
p26
S'push'
p27
s.(dp0
S'from'
p1
I12
sS'message'
p2
ccopy_reg
_reconstructor
p3
(cMessage
RequestResponseMessage
p4
c__builtin__
object
p5
Ntp6
Rp7
(dp8
S'status'
p9
I01
sS'sender'
p10
I12
sS'bb'
p11
I00
sS'receiver'
p12
I13
sS'content'
p13
NsS'num'
p14
I31
sS'messageId'
p15
I28
sS'createdTime'
p16
S'2014-09-01 09:36:27'
p17
sS'property'
p18
NsbsS'op'
p19
S'sendConfirmation'
p20
sS'type'
p21
S'channel'
p22
sS'to'
p23
I13
s.(dp0
S'from'
p1
I5
sS'message'
p2
ccopy_reg
_reconstructor
p3
(cMessage
SegmentMessage
p4
c__builtin__
object
p5
Ntp6
Rp7
(dp8
S'sender'
p9
I5
sS'bb'
p10
I00
sS'receiver'
p11
I12
sS'content'
p12
NsS'num'
p13
I19
sS'messageId'
p14
I15
sS'createdTime'
p15
S'2014-09-01 09:36:15'
p16
sS'property'
p17
NsbsS'op'
p18
S'receive'
p19
sS'type'
p20
S'channel'
p21
sS'to'
p22
I12
s.(dp0
S'procId'
p1
I12
sS'type'
p2
S'process'
p3
sS'op'
p4
S'receivedSegments'
p5
s.(dp0
S'from'
p1
I2
sS'message'
p2
ccopy_reg
_reconstructor
p3
(cMessage
SegmentMessage
p4
c__builtin__
object
p5
Ntp6
Rp7
(dp8
S'sender'
p9
I2
sS'bb'
p10
I00
sS'receiver'
p11
I12
sS'content'
p12
NsS'num'
p13
I25
sS'messageId'
p14
I23
sS'createdTime'
p15
S'2014-09-01 09:36:21'
p16
sS'property'
p17
NsbsS'op'
p18
S'receive'
p19
sS'type'
p20
S'channel'
p21
sS'to'
p22
I12
s.(dp0
S'procId'
p1
I12
sS'type'
p2
S'process'
p3
sS'op'
p4
S'receivedSegments'
p5
s.(dp0
S'queue'
p1
S'AdQ'
p2
sS'procId'
p3
I12
sS'message'
p4
ccopy_reg
_reconstructor
p5
(cMessage
DownloadRequestMessage
p6
c__builtin__
object
p7
Ntp8
Rp9
(dp10
S'sender'
p11
I13
sS'bb'
p12
I00
sS'receiver'
p13
I12
sS'content'
p14
(dp15
S'segmentFrom'
p16
I280
sS'segmentTo'
p17
I290
sS'segmentDownloadtime'
p18
I2
ssS'num'
p19
I36
sS'messageId'
p20
I28
sS'createdTime'
p21
S'2014-09-01 09:36:21'
p22
sS'property'
p23
NsbsS'type'
p24
S'process'
p25
sS'op'
p26
S'pop'
p27
s.(dp0
S'from'
p1
I12
sS'message'
p2
ccopy_reg
_reconstructor
p3
(cMessage
AdvertisementMessage
p4
c__builtin__
object
p5
Ntp6
Rp7
(dp8
S'sender'
p9
I12
sS'bb'
p10
I00
sS'receiver'
p11
I0
sS'content'
p12
NsS'num'
p13
I32
sS'messageId'
p14
I28
sS'createdTime'
p15
S'2014-09-01 09:36:29'
p16
sS'property'
p17
NsbsS'op'
p18
S'bcast'
p19
sS'type'
p20
S'channel'
p21
sS'to'
p22
I0
s.(dp0
S'from'
p1
I12
sS'message'
p2
ccopy_reg
_reconstructor
p3
(cMessage
AdvertisementMessage
p4
c__builtin__
object
p5
Ntp6
Rp7
(dp8
S'sender'
p9
I12
sS'bb'
p10
I00
sS'receiver'
p11
I1
sS'content'
p12
NsS'num'
p13
I33
sS'messageId'
p14
I28
sS'createdTime'
p15
S'2014-09-01 09:36:29'
p16
sS'property'
p17
NsbsS'op'
p18
S'bcast'
p19
sS'type'
p20
S'channel'
p21
sS'to'
p22
I1
s.(dp0
S'from'
p1
I12
sS'message'
p2
ccopy_reg
_reconstructor
p3
(cMessage
AdvertisementMessage
p4
c__builtin__
object
p5
Ntp6
Rp7
(dp8
S'sender'
p9
I12
sS'bb'
p10
I00
sS'receiver'
p11
I2
sS'content'
p12
NsS'num'
p13
I34
sS'messageId'
p14
I28
sS'createdTime'
p15
S'2014-09-01 09:36:29'
p16
sS'property'
p17
NsbsS'op'
p18
S'bcast'
p19
sS'type'
p20
S'channel'
p21
sS'to'
p22
I2
s.(dp0
S'from'
p1
I12
sS'message'
p2
ccopy_reg
_reconstructor
p3
(cMessage
AdvertisementMessage
p4
c__builtin__
object
p5
Ntp6
Rp7
(dp8
S'sender'
p9
I12
sS'bb'
p10
I00
sS'receiver'
p11
I3
sS'content'
p12
NsS'num'
p13
I35
sS'messageId'
p14
I28
sS'createdTime'
p15
S'2014-09-01 09:36:29'
p16
sS'property'
p17
NsbsS'op'
p18
S'bcast'
p19
sS'type'
p20
S'channel'
p21
sS'to'
p22
I3
s.(dp0
S'from'
p1
I12
sS'message'
p2
ccopy_reg
_reconstructor
p3
(cMessage
AdvertisementMessage
p4
c__builtin__
object
p5
Ntp6
Rp7
(dp8
S'sender'
p9
I12
sS'bb'
p10
I00
sS'receiver'
p11
I4
sS'content'
p12
NsS'num'
p13
I36
sS'messageId'
p14
I28
sS'createdTime'
p15
S'2014-09-01 09:36:29'
p16
sS'property'
p17
NsbsS'op'
p18
S'bcast'
p19
sS'type'
p20
S'channel'
p21
sS'to'
p22
I4
s.(dp0
S'from'
p1
I12
sS'message'
p2
ccopy_reg
_reconstructor
p3
(cMessage
AdvertisementMessage
p4
c__builtin__
object
p5
Ntp6
Rp7
(dp8
S'sender'
p9
I12
sS'bb'
p10
I00
sS'receiver'
p11
I5
sS'content'
p12
NsS'num'
p13
I37
sS'messageId'
p14
I28
sS'createdTime'
p15
S'2014-09-01 09:36:29'
p16
sS'property'
p17
NsbsS'op'
p18
S'bcast'
p19
sS'type'
p20
S'channel'
p21
sS'to'
p22
I5
s.(dp0
S'from'
p1
I12
sS'message'
p2
ccopy_reg
_reconstructor
p3
(cMessage
AdvertisementMessage
p4
c__builtin__
object
p5
Ntp6
Rp7
(dp8
S'sender'
p9
I12
sS'bb'
p10
I00
sS'receiver'
p11
I6
sS'content'
p12
NsS'num'
p13
I38
sS'messageId'
p14
I28
sS'createdTime'
p15
S'2014-09-01 09:36:29'
p16
sS'property'
p17
NsbsS'op'
p18
S'bcast'
p19
sS'type'
p20
S'channel'
p21
sS'to'
p22
I6
s.(dp0
S'from'
p1
I12
sS'message'
p2
ccopy_reg
_reconstructor
p3
(cMessage
AdvertisementMessage
p4
c__builtin__
object
p5
Ntp6
Rp7
(dp8
S'sender'
p9
I12
sS'bb'
p10
I00
sS'receiver'
p11
I7
sS'content'
p12
NsS'num'
p13
I39
sS'messageId'
p14
I28
sS'createdTime'
p15
S'2014-09-01 09:36:29'
p16
sS'property'
p17
NsbsS'op'
p18
S'bcast'
p19
sS'type'
p20
S'channel'
p21
sS'to'
p22
I7
s.(dp0
S'from'
p1
I12
sS'message'
p2
ccopy_reg
_reconstructor
p3
(cMessage
AdvertisementMessage
p4
c__builtin__
object
p5
Ntp6
Rp7
(dp8
S'sender'
p9
I12
sS'bb'
p10
I00
sS'receiver'
p11
I8
sS'content'
p12
NsS'num'
p13
I40
sS'messageId'
p14
I28
sS'createdTime'
p15
S'2014-09-01 09:36:29'
p16
sS'property'
p17
NsbsS'op'
p18
S'bcast'
p19
sS'type'
p20
S'channel'
p21
sS'to'
p22
I8
s.(dp0
S'from'
p1
I12
sS'message'
p2
ccopy_reg
_reconstructor
p3
(cMessage
AdvertisementMessage
p4
c__builtin__
object
p5
Ntp6
Rp7
(dp8
S'sender'
p9
I12
sS'bb'
p10
I00
sS'receiver'
p11
I9
sS'content'
p12
NsS'num'
p13
I41
sS'messageId'
p14
I28
sS'createdTime'
p15
S'2014-09-01 09:36:29'
p16
sS'property'
p17
NsbsS'op'
p18
S'bcast'
p19
sS'type'
p20
S'channel'
p21
sS'to'
p22
I9
s.(dp0
S'from'
p1
I12
sS'message'
p2
ccopy_reg
_reconstructor
p3
(cMessage
AdvertisementMessage
p4
c__builtin__
object
p5
Ntp6
Rp7
(dp8
S'sender'
p9
I12
sS'bb'
p10
I00
sS'receiver'
p11
I10
sS'content'
p12
NsS'num'
p13
I42
sS'messageId'
p14
I28
sS'createdTime'
p15
S'2014-09-01 09:36:29'
p16
sS'property'
p17
NsbsS'op'
p18
S'bcast'
p19
sS'type'
p20
S'channel'
p21
sS'to'
p22
I10
s.(dp0
S'from'
p1
I12
sS'message'
p2
ccopy_reg
_reconstructor
p3
(cMessage
AdvertisementMessage
p4
c__builtin__
object
p5
Ntp6
Rp7
(dp8
S'sender'
p9
I12
sS'bb'
p10
I00
sS'receiver'
p11
I11
sS'content'
p12
NsS'num'
p13
I43
sS'messageId'
p14
I28
sS'createdTime'
p15
S'2014-09-01 09:36:29'
p16
sS'property'
p17
NsbsS'op'
p18
S'bcast'
p19
sS'type'
p20
S'channel'
p21
sS'to'
p22
I11
s.(dp0
S'from'
p1
I7
sS'message'
p2
ccopy_reg
_reconstructor
p3
(cMessage
SegmentMessage
p4
c__builtin__
object
p5
Ntp6
Rp7
(dp8
S'sender'
p9
I7
sS'bb'
p10
I00
sS'receiver'
p11
I12
sS'content'
p12
NsS'num'
p13
I34
sS'messageId'
p14
I42
sS'createdTime'
p15
S'2014-09-01 09:36:22'
p16
sS'property'
p17
NsbsS'op'
p18
S'receive'
p19
sS'type'
p20
S'channel'
p21
sS'to'
p22
I12
s.(dp0
S'procId'
p1
I12
sS'type'
p2
S'process'
p3
sS'op'
p4
S'receivedSegments'
p5
s.(dp0
S'from'
p1
I7
sS'message'
p2
ccopy_reg
_reconstructor
p3
(cMessage
RequestMessage
p4
c__builtin__
object
p5
Ntp6
Rp7
(dp8
S'sender'
p9
I7
sS'bb'
p10
I00
sS'receiver'
p11
I12
sS'content'
p12
NsS'num'
p13
I35
sS'messageId'
p14
I13
sS'createdTime'
p15
S'2014-09-01 09:36:23'
p16
sS'property'
p17
NsbsS'op'
p18
S'receive'
p19
sS'type'
p20
S'channel'
p21
sS'to'
p22
I12
s.(dp0
S'queue'
p1
S'ReQ'
p2
sS'procId'
p3
I12
sS'message'
p4
ccopy_reg
_reconstructor
p5
(cMessage
RequestMessage
p6
c__builtin__
object
p7
Ntp8
Rp9
(dp10
S'sender'
p11
I7
sS'bb'
p12
I00
sS'receiver'
p13
I12
sS'content'
p14
NsS'num'
p15
I35
sS'messageId'
p16
I13
sS'createdTime'
p17
S'2014-09-01 09:36:23'
p18
sS'property'
p19
NsbsS'type'
p20
S'process'
p21
sS'op'
p22
S'push'
p23
s.(dp0
S'queue'
p1
S'ReqQ'
p2
sS'procId'
p3
I12
sS'message'
p4
ccopy_reg
_reconstructor
p5
(cMessage
RequestMessage
p6
c__builtin__
object
p7
Ntp8
Rp9
(dp10
S'sender'
p11
I7
sS'bb'
p12
I00
sS'receiver'
p13
I12
sS'content'
p14
NsS'num'
p15
I35
sS'messageId'
p16
I13
sS'createdTime'
p17
S'2014-09-01 09:36:23'
p18
sS'property'
p19
NsbsS'type'
p20
S'process'
p21
sS'op'
p22
S'pop'
p23
s.(dp0
S'from'
p1
I11
sS'message'
p2
ccopy_reg
_reconstructor
p3
(cMessage
AdvertisementMessage
p4
c__builtin__
object
p5
Ntp6
Rp7
(dp8
S'sender'
p9
I11
sS'bb'
p10
I00
sS'receiver'
p11
I12
sS'content'
p12
NsS'num'
p13
I39
sS'messageId'
p14
I22
sS'createdTime'
p15
S'2014-09-01 09:36:22'
p16
sS'property'
p17
NsbsS'op'
p18
S'receive'
p19
sS'type'
p20
S'channel'
p21
sS'to'
p22
I12
s.(dp0
S'from'
p1
I11
sS'message'
p2
ccopy_reg
_reconstructor
p3
(cMessage
RequestMessage
p4
c__builtin__
object
p5
Ntp6
Rp7
(dp8
S'sender'
p9
I12
sS'receiver'
p10
I11
sS'content'
p11
NsS'num'
p12
I45
sS'messageId'
p13
I22
sS'createdTime'
p14
S'2014-09-01 09:36:32'
p15
sS'property'
p16
NsbsS'op'
p17
S'send'
p18
sS'type'
p19
S'channel'
p20
sS'to'
p21
I12
s.(dp0
S'from'
p1
I0
sS'message'
p2
ccopy_reg
_reconstructor
p3
(cMessage
AdvertisementMessage
p4
c__builtin__
object
p5
Ntp6
Rp7
(dp8
S'sender'
p9
I0
sS'bb'
p10
I00
sS'receiver'
p11
I12
sS'content'
p12
NsS'num'
p13
I43
sS'messageId'
p14
I29
sS'createdTime'
p15
S'2014-09-01 09:36:18'
p16
sS'property'
p17
NsbsS'op'
p18
S'receive'
p19
sS'type'
p20
S'channel'
p21
sS'to'
p22
I12
s.(dp0
S'from'
p1
I0
sS'message'
p2
ccopy_reg
_reconstructor
p3
(cMessage
RequestMessage
p4
c__builtin__
object
p5
Ntp6
Rp7
(dp8
S'sender'
p9
I12
sS'receiver'
p10
I0
sS'content'
p11
NsS'num'
p12
I46
sS'messageId'
p13
I29
sS'createdTime'
p14
S'2014-09-01 09:36:32'
p15
sS'property'
p16
NsbsS'op'
p17
S'send'
p18
sS'type'
p19
S'channel'
p20
sS'to'
p21
I12
s.(dp0
S'from'
p1
I6
sS'message'
p2
ccopy_reg
_reconstructor
p3
(cMessage
AdvertisementMessage
p4
c__builtin__
object
p5
Ntp6
Rp7
(dp8
S'sender'
p9
I6
sS'bb'
p10
I00
sS'receiver'
p11
I12
sS'content'
p12
NsS'num'
p13
I41
sS'messageId'
p14
I19
sS'createdTime'
p15
S'2014-09-01 09:36:23'
p16
sS'property'
p17
NsbsS'op'
p18
S'receive'
p19
sS'type'
p20
S'channel'
p21
sS'to'
p22
I12
s.(dp0
S'from'
p1
I6
sS'message'
p2
ccopy_reg
_reconstructor
p3
(cMessage
RequestMessage
p4
c__builtin__
object
p5
Ntp6
Rp7
(dp8
S'sender'
p9
I12
sS'receiver'
p10
I6
sS'content'
p11
NsS'num'
p12
I47
sS'messageId'
p13
I19
sS'createdTime'
p14
S'2014-09-01 09:36:32'
p15
sS'property'
p16
NsbsS'op'
p17
S'send'
p18
sS'type'
p19
S'channel'
p20
sS'to'
p21
I12
s.(dp0
S'from'
p1
I2
sS'message'
p2
ccopy_reg
_reconstructor
p3
(cMessage
AdvertisementMessage
p4
c__builtin__
object
p5
Ntp6
Rp7
(dp8
S'sender'
p9
I2
sS'bb'
p10
I00
sS'receiver'
p11
I12
sS'content'
p12
NsS'num'
p13
I46
sS'messageId'
p14
I37
sS'createdTime'
p15
S'2014-09-01 09:36:28'
p16
sS'property'
p17
NsbsS'op'
p18
S'receive'
p19
sS'type'
p20
S'channel'
p21
sS'to'
p22
I12
s.(dp0
S'from'
p1
I2
sS'message'
p2
ccopy_reg
_reconstructor
p3
(cMessage
RequestMessage
p4
c__builtin__
object
p5
Ntp6
Rp7
(dp8
S'sender'
p9
I12
sS'receiver'
p10
I2
sS'content'
p11
NsS'num'
p12
I48
sS'messageId'
p13
I37
sS'createdTime'
p14
S'2014-09-01 09:36:33'
p15
sS'property'
p16
NsbsS'op'
p17
S'send'
p18
sS'type'
p19
S'channel'
p20
sS'to'
p21
I12
s.(dp0
S'from'
p1
I8
sS'message'
p2
ccopy_reg
_reconstructor
p3
(cMessage
AdvertisementMessage
p4
c__builtin__
object
p5
Ntp6
Rp7
(dp8
S'sender'
p9
I8
sS'bb'
p10
I00
sS'receiver'
p11
I12
sS'content'
p12
NsS'num'
p13
I27
sS'messageId'
p14
I38
sS'createdTime'
p15
S'2014-09-01 09:36:26'
p16
sS'property'
p17
NsbsS'op'
p18
S'receive'
p19
sS'type'
p20
S'channel'
p21
sS'to'
p22
I12
s.(dp0
S'from'
p1
I8
sS'message'
p2
ccopy_reg
_reconstructor
p3
(cMessage
RequestMessage
p4
c__builtin__
object
p5
Ntp6
Rp7
(dp8
S'sender'
p9
I12
sS'receiver'
p10
I8
sS'content'
p11
NsS'num'
p12
I49
sS'messageId'
p13
I38
sS'createdTime'
p14
S'2014-09-01 09:36:33'
p15
sS'property'
p16
NsbsS'op'
p17
S'send'
p18
sS'type'
p19
S'channel'
p20
sS'to'
p21
I12
s.(dp0
S'from'
p1
I2
sS'message'
p2
ccopy_reg
_reconstructor
p3
(cMessage
AdvertisementMessage
p4
c__builtin__
object
p5
Ntp6
Rp7
(dp8
S'sender'
p9
I2
sS'bb'
p10
I00
sS'receiver'
p11
I12
sS'content'
p12
NsS'num'
p13
I60
sS'messageId'
p14
I30
sS'createdTime'
p15
S'2014-09-01 09:36:30'
p16
sS'property'
p17
NsbsS'op'
p18
S'receive'
p19
sS'type'
p20
S'channel'
p21
sS'to'
p22
I12
s.(dp0
S'from'
p1
I2
sS'message'
p2
ccopy_reg
_reconstructor
p3
(cMessage
RequestMessage
p4
c__builtin__
object
p5
Ntp6
Rp7
(dp8
S'sender'
p9
I12
sS'receiver'
p10
I2
sS'content'
p11
NsS'num'
p12
I50
sS'messageId'
p13
I30
sS'createdTime'
p14
S'2014-09-01 09:36:35'
p15
sS'property'
p16
NsbsS'op'
p17
S'send'
p18
sS'type'
p19
S'channel'
p20
sS'to'
p21
I12
s.(dp0
S'from'
p1
I1
sS'message'
p2
ccopy_reg
_reconstructor
p3
(cMessage
SegmentMessage
p4
c__builtin__
object
p5
Ntp6
Rp7
(dp8
S'sender'
p9
I1
sS'bb'
p10
I00
sS'receiver'
p11
I12
sS'content'
p12
NsS'num'
p13
I50
sS'messageId'
p14
I0
sS'createdTime'
p15
S'2014-09-01 09:36:21'
p16
sS'property'
p17
NsbsS'op'
p18
S'receive'
p19
sS'type'
p20
S'channel'
p21
sS'to'
p22
I12
s.(dp0
S'procId'
p1
I12
sS'type'
p2
S'process'
p3
sS'op'
p4
S'receivedSegments'
p5
s.(dp0
S'from'
p1
I1
sS'message'
p2
ccopy_reg
_reconstructor
p3
(cMessage
RequestMessage
p4
c__builtin__
object
p5
Ntp6
Rp7
(dp8
S'sender'
p9
I1
sS'bb'
p10
I00
sS'receiver'
p11
I12
sS'content'
p12
NsS'num'
p13
I53
sS'messageId'
p14
I13
sS'createdTime'
p15
S'2014-09-01 09:36:22'
p16
sS'property'
p17
NsbsS'op'
p18
S'receive'
p19
sS'type'
p20
S'channel'
p21
sS'to'
p22
I12
s.(dp0
S'queue'
p1
S'ReQ'
p2
sS'procId'
p3
I12
sS'message'
p4
ccopy_reg
_reconstructor
p5
(cMessage
RequestMessage
p6
c__builtin__
object
p7
Ntp8
Rp9
(dp10
S'sender'
p11
I1
sS'bb'
p12
I00
sS'receiver'
p13
I12
sS'content'
p14
NsS'num'
p15
I53
sS'messageId'
p16
I13
sS'createdTime'
p17
S'2014-09-01 09:36:22'
p18
sS'property'
p19
NsbsS'type'
p20
S'process'
p21
sS'op'
p22
S'push'
p23
s.(dp0
S'queue'
p1
S'ReqQ'
p2
sS'procId'
p3
I12
sS'message'
p4
ccopy_reg
_reconstructor
p5
(cMessage
RequestMessage
p6
c__builtin__
object
p7
Ntp8
Rp9
(dp10
S'sender'
p11
I1
sS'bb'
p12
I00
sS'receiver'
p13
I12
sS'content'
p14
NsS'num'
p15
I53
sS'messageId'
p16
I13
sS'createdTime'
p17
S'2014-09-01 09:36:22'
p18
sS'property'
p19
NsbsS'type'
p20
S'process'
p21
sS'op'
p22
S'pop'
p23
s.(dp0
S'from'
p1
I0
sS'message'
p2
ccopy_reg
_reconstructor
p3
(cMessage
AdvertisementMessage
p4
c__builtin__
object
p5
Ntp6
Rp7
(dp8
S'sender'
p9
I0
sS'bb'
p10
I00
sS'receiver'
p11
I12
sS'content'
p12
NsS'num'
p13
I57
sS'messageId'
p14
I3
sS'createdTime'
p15
S'2014-09-01 09:36:19'
p16
sS'property'
p17
NsbsS'op'
p18
S'receive'
p19
sS'type'
p20
S'channel'
p21
sS'to'
p22
I12
s.(dp0
S'from'
p1
I0
sS'message'
p2
ccopy_reg
_reconstructor
p3
(cMessage
RequestMessage
p4
c__builtin__
object
p5
Ntp6
Rp7
(dp8
S'sender'
p9
I12
sS'receiver'
p10
I0
sS'content'
p11
NsS'num'
p12
I52
sS'messageId'
p13
I3
sS'createdTime'
p14
S'2014-09-01 09:36:36'
p15
sS'property'
p16
NsbsS'op'
p17
S'send'
p18
sS'type'
p19
S'channel'
p20
sS'to'
p21
I12
s.(dp0
S'from'
p1
I1
sS'message'
p2
ccopy_reg
_reconstructor
p3
(cMessage
AdvertisementMessage
p4
c__builtin__
object
p5
Ntp6
Rp7
(dp8
S'sender'
p9
I1
sS'bb'
p10
I00
sS'receiver'
p11
I12
sS'content'
p12
NsS'num'
p13
I66
sS'messageId'
p14
I9
sS'createdTime'
p15
S'2014-09-01 09:36:23'
p16
sS'property'
p17
NsbsS'op'
p18
S'receive'
p19
sS'type'
p20
S'channel'
p21
sS'to'
p22
I12
s.(dp0
S'from'
p1
I1
sS'message'
p2
ccopy_reg
_reconstructor
p3
(cMessage
RequestMessage
p4
c__builtin__
object
p5
Ntp6
Rp7
(dp8
S'sender'
p9
I12
sS'receiver'
p10
I1
sS'content'
p11
NsS'num'
p12
I53
sS'messageId'
p13
I9
sS'createdTime'
p14
S'2014-09-01 09:36:37'
p15
sS'property'
p16
NsbsS'op'
p17
S'send'
p18
sS'type'
p19
S'channel'
p20
sS'to'
p21
I12
s.(dp0
S'from'
p1
I10
sS'message'
p2
ccopy_reg
_reconstructor
p3
(cMessage
AdvertisementMessage
p4
c__builtin__
object
p5
Ntp6
Rp7
(dp8
S'sender'
p9
I10
sS'bb'
p10
I00
sS'receiver'
p11
I12
sS'content'
p12
NsS'num'
p13
I23
sS'messageId'
p14
I5
sS'createdTime'
p15
S'2014-09-01 09:36:23'
p16
sS'property'
p17
NsbsS'op'
p18
S'receive'
p19
sS'type'
p20
S'channel'
p21
sS'to'
p22
I12
s.(dp0
S'from'
p1
I10
sS'message'
p2
ccopy_reg
_reconstructor
p3
(cMessage
RequestMessage
p4
c__builtin__
object
p5
Ntp6
Rp7
(dp8
S'sender'
p9
I12
sS'receiver'
p10
I10
sS'content'
p11
NsS'num'
p12
I54
sS'messageId'
p13
I5
sS'createdTime'
p14
S'2014-09-01 09:36:38'
p15
sS'property'
p16
NsbsS'op'
p17
S'send'
p18
sS'type'
p19
S'channel'
p20
sS'to'
p21
I12
s.(dp0
S'from'
p1
I0
sS'message'
p2
ccopy_reg
_reconstructor
p3
(cMessage
AdvertisementMessage
p4
c__builtin__
object
p5
Ntp6
Rp7
(dp8
S'sender'
p9
I0
sS'bb'
p10
I00
sS'receiver'
p11
I12
sS'content'
p12
NsS'num'
p13
I76
sS'messageId'
p14
I4
sS'createdTime'
p15
S'2014-09-01 09:36:24'
p16
sS'property'
p17
NsbsS'op'
p18
S'receive'
p19
sS'type'
p20
S'channel'
p21
sS'to'
p22
I12
s.(dp0
S'from'
p1
I0
sS'message'
p2
ccopy_reg
_reconstructor
p3
(cMessage
RequestMessage
p4
c__builtin__
object
p5
Ntp6
Rp7
(dp8
S'sender'
p9
I12
sS'receiver'
p10
I0
sS'content'
p11
NsS'num'
p12
I55
sS'messageId'
p13
I4
sS'createdTime'
p14
S'2014-09-01 09:36:38'
p15
sS'property'
p16
NsbsS'op'
p17
S'send'
p18
sS'type'
p19
S'channel'
p20
sS'to'
p21
I12
s.(dp0
S'from'
p1
I3
sS'message'
p2
ccopy_reg
_reconstructor
p3
(cMessage
AdvertisementMessage
p4
c__builtin__
object
p5
Ntp6
Rp7
(dp8
S'sender'
p9
I3
sS'bb'
p10
I00
sS'receiver'
p11
I12
sS'content'
p12
NsS'num'
p13
I67
sS'messageId'
p14
I7
sS'createdTime'
p15
S'2014-09-01 09:36:22'
p16
sS'property'
p17
NsbsS'op'
p18
S'receive'
p19
sS'type'
p20
S'channel'
p21
sS'to'
p22
I12
s.(dp0
S'from'
p1
I3
sS'message'
p2
ccopy_reg
_reconstructor
p3
(cMessage
RequestMessage
p4
c__builtin__
object
p5
Ntp6
Rp7
(dp8
S'sender'
p9
I12
sS'receiver'
p10
I3
sS'content'
p11
NsS'num'
p12
I56
sS'messageId'
p13
I7
sS'createdTime'
p14
S'2014-09-01 09:36:39'
p15
sS'property'
p16
NsbsS'op'
p17
S'send'
p18
sS'type'
p19
S'channel'
p20
sS'to'
p21
I12
s.(dp0
S'from'
p1
I2
sS'message'
p2
ccopy_reg
_reconstructor
p3
(cMessage
RequestMessage
p4
c__builtin__
object
p5
Ntp6
Rp7
(dp8
S'sender'
p9
I2
sS'bb'
p10
I00
sS'receiver'
p11
I12
sS'content'
p12
NsS'num'
p13
I64
sS'messageId'
p14
I13
sS'createdTime'
p15
S'2014-09-01 09:36:32'
p16
sS'property'
p17
NsbsS'op'
p18
S'receive'
p19
sS'type'
p20
S'channel'
p21
sS'to'
p22
I12
s.(dp0
S'queue'
p1
S'ReQ'
p2
sS'procId'
p3
I12
sS'message'
p4
ccopy_reg
_reconstructor
p5
(cMessage
RequestMessage
p6
c__builtin__
object
p7
Ntp8
Rp9
(dp10
S'sender'
p11
I2
sS'bb'
p12
I00
sS'receiver'
p13
I12
sS'content'
p14
NsS'num'
p15
I64
sS'messageId'
p16
I13
sS'createdTime'
p17
S'2014-09-01 09:36:32'
p18
sS'property'
p19
NsbsS'type'
p20
S'process'
p21
sS'op'
p22
S'push'
p23
s.(dp0
S'queue'
p1
S'ReqQ'
p2
sS'procId'
p3
I12
sS'message'
p4
ccopy_reg
_reconstructor
p5
(cMessage
RequestMessage
p6
c__builtin__
object
p7
Ntp8
Rp9
(dp10
S'sender'
p11
I2
sS'bb'
p12
I00
sS'receiver'
p13
I12
sS'content'
p14
NsS'num'
p15
I64
sS'messageId'
p16
I13
sS'createdTime'
p17
S'2014-09-01 09:36:32'
p18
sS'property'
p19
NsbsS'type'
p20
S'process'
p21
sS'op'
p22
S'pop'
p23
s.(dp0
S'from'
p1
I7
sS'message'
p2
ccopy_reg
_reconstructor
p3
(cMessage
SegmentMessage
p4
c__builtin__
object
p5
Ntp6
Rp7
(dp8
S'sender'
p9
I7
sS'bb'
p10
I00
sS'receiver'
p11
I12
sS'content'
p12
NsS'num'
p13
I38
sS'messageId'
p14
I35
sS'createdTime'
p15
S'2014-09-01 09:36:26'
p16
sS'property'
p17
NsbsS'op'
p18
S'receive'
p19
sS'type'
p20
S'channel'
p21
sS'to'
p22
I12
s.(dp0
S'procId'
p1
I12
sS'type'
p2
S'process'
p3
sS'op'
p4
S'receivedSegments'
p5
s.(dp0
S'from'
p1
I1
sS'message'
p2
ccopy_reg
_reconstructor
p3
(cMessage
AdvertisementMessage
p4
c__builtin__
object
p5
Ntp6
Rp7
(dp8
S'sender'
p9
I1
sS'bb'
p10
I00
sS'receiver'
p11
I12
sS'content'
p12
NsS'num'
p13
I85
sS'messageId'
p14
I39
sS'createdTime'
p15
S'2014-09-01 09:36:27'
p16
sS'property'
p17
NsbsS'op'
p18
S'receive'
p19
sS'type'
p20
S'channel'
p21
sS'to'
p22
I12
s.(dp0
S'from'
p1
I1
sS'message'
p2
ccopy_reg
_reconstructor
p3
(cMessage
RequestMessage
p4
c__builtin__
object
p5
Ntp6
Rp7
(dp8
S'sender'
p9
I12
sS'receiver'
p10
I1
sS'content'
p11
NsS'num'
p12
I58
sS'messageId'
p13
I39
sS'createdTime'
p14
S'2014-09-01 09:36:41'
p15
sS'property'
p16
NsbsS'op'
p17
S'send'
p18
sS'type'
p19
S'channel'
p20
sS'to'
p21
I12
s.(dp0
S'from'
p1
I3
sS'message'
p2
ccopy_reg
_reconstructor
p3
(cMessage
AdvertisementMessage
p4
c__builtin__
object
p5
Ntp6
Rp7
(dp8
S'sender'
p9
I3
sS'bb'
p10
I00
sS'receiver'
p11
I12
sS'content'
p12
NsS'num'
p13
I81
sS'messageId'
p14
I24
sS'createdTime'
p15
S'2014-09-01 09:36:25'
p16
sS'property'
p17
NsbsS'op'
p18
S'receive'
p19
sS'type'
p20
S'channel'
p21
sS'to'
p22
I12
s.(dp0
S'from'
p1
I3
sS'message'
p2
ccopy_reg
_reconstructor
p3
(cMessage
RequestMessage
p4
c__builtin__
object
p5
Ntp6
Rp7
(dp8
S'sender'
p9
I12
sS'receiver'
p10
I3
sS'content'
p11
NsS'num'
p12
I59
sS'messageId'
p13
I24
sS'createdTime'
p14
S'2014-09-01 09:36:42'
p15
sS'property'
p16
NsbsS'op'
p17
S'send'
p18
sS'type'
p19
S'channel'
p20
sS'to'
p21
I12
s.(dp0
S'from'
p1
I4
sS'message'
p2
ccopy_reg
_reconstructor
p3
(cMessage
AdvertisementMessage
p4
c__builtin__
object
p5
Ntp6
Rp7
(dp8
S'sender'
p9
I4
sS'bb'
p10
I00
sS'receiver'
p11
I12
sS'content'
p12
NsS'num'
p13
I50
sS'messageId'
p14
I31
sS'createdTime'
p15
S'2014-09-01 09:36:19'
p16
sS'property'
p17
NsbsS'op'
p18
S'receive'
p19
sS'type'
p20
S'channel'
p21
sS'to'
p22
I12
s.(dp0
S'from'
p1
I4
sS'message'
p2
ccopy_reg
_reconstructor
p3
(cMessage
RequestMessage
p4
c__builtin__
object
p5
Ntp6
Rp7
(dp8
S'sender'
p9
I12
sS'receiver'
p10
I4
sS'content'
p11
NsS'num'
p12
I60
sS'messageId'
p13
I31
sS'createdTime'
p14
S'2014-09-01 09:36:43'
p15
sS'property'
p16
NsbsS'op'
p17
S'send'
p18
sS'type'
p19
S'channel'
p20
sS'to'
p21
I12
s.(dp0
S'from'
p1
I6
sS'message'
p2
ccopy_reg
_reconstructor
p3
(cMessage
RequestMessage
p4
c__builtin__
object
p5
Ntp6
Rp7
(dp8
S'sender'
p9
I6
sS'bb'
p10
I00
sS'receiver'
p11
I12
sS'content'
p12
NsS'num'
p13
I51
sS'messageId'
p14
I13
sS'createdTime'
p15
S'2014-09-01 09:36:32'
p16
sS'property'
p17
NsbsS'op'
p18
S'receive'
p19
sS'type'
p20
S'channel'
p21
sS'to'
p22
I12
s.(dp0
S'queue'
p1
S'ReQ'
p2
sS'procId'
p3
I12
sS'message'
p4
ccopy_reg
_reconstructor
p5
(cMessage
RequestMessage
p6
c__builtin__
object
p7
Ntp8
Rp9
(dp10
S'sender'
p11
I6
sS'bb'
p12
I00
sS'receiver'
p13
I12
sS'content'
p14
NsS'num'
p15
I51
sS'messageId'
p16
I13
sS'createdTime'
p17
S'2014-09-01 09:36:32'
p18
sS'property'
p19
NsbsS'type'
p20
S'process'
p21
sS'op'
p22
S'push'
p23
s.(dp0
S'queue'
p1
S'ReqQ'
p2
sS'procId'
p3
I12
sS'message'
p4
ccopy_reg
_reconstructor
p5
(cMessage
RequestMessage
p6
c__builtin__
object
p7
Ntp8
Rp9
(dp10
S'sender'
p11
I6
sS'bb'
p12
I00
sS'receiver'
p13
I12
sS'content'
p14
NsS'num'
p15
I51
sS'messageId'
p16
I13
sS'createdTime'
p17
S'2014-09-01 09:36:32'
p18
sS'property'
p19
NsbsS'type'
p20
S'process'
p21
sS'op'
p22
S'pop'
p23
s.(dp0
S'from'
p1
I2
sS'message'
p2
ccopy_reg
_reconstructor
p3
(cMessage
RequestMessage
p4
c__builtin__
object
p5
Ntp6
Rp7
(dp8
S'sender'
p9
I2
sS'bb'
p10
I00
sS'receiver'
p11
I12
sS'content'
p12
NsS'num'
p13
I67
sS'messageId'
p14
I28
sS'createdTime'
p15
S'2014-09-01 09:36:33'
p16
sS'property'
p17
NsbsS'op'
p18
S'receive'
p19
sS'type'
p20
S'channel'
p21
sS'to'
p22
I12
s.(dp0
S'queue'
p1
S'ReQ'
p2
sS'procId'
p3
I12
sS'message'
p4
ccopy_reg
_reconstructor
p5
(cMessage
RequestMessage
p6
c__builtin__
object
p7
Ntp8
Rp9
(dp10
S'sender'
p11
I2
sS'bb'
p12
I00
sS'receiver'
p13
I12
sS'content'
p14
NsS'num'
p15
I67
sS'messageId'
p16
I28
sS'createdTime'
p17
S'2014-09-01 09:36:33'
p18
sS'property'
p19
NsbsS'type'
p20
S'process'
p21
sS'op'
p22
S'push'
p23
s.(dp0
S'queue'
p1
S'ReqQ'
p2
sS'procId'
p3
I12
sS'message'
p4
ccopy_reg
_reconstructor
p5
(cMessage
RequestMessage
p6
c__builtin__
object
p7
Ntp8
Rp9
(dp10
S'sender'
p11
I2
sS'bb'
p12
I00
sS'receiver'
p13
I12
sS'content'
p14
NsS'num'
p15
I67
sS'messageId'
p16
I28
sS'createdTime'
p17
S'2014-09-01 09:36:33'
p18
sS'property'
p19
NsbsS'type'
p20
S'process'
p21
sS'op'
p22
S'pop'
p23
s.(dp0
S'from'
p1
I7
sS'message'
p2
ccopy_reg
_reconstructor
p3
(cMessage
RequestMessage
p4
c__builtin__
object
p5
Ntp6
Rp7
(dp8
S'sender'
p9
I7
sS'bb'
p10
I00
sS'receiver'
p11
I12
sS'content'
p12
NsS'num'
p13
I45
sS'messageId'
p14
I28
sS'createdTime'
p15
S'2014-09-01 09:36:30'
p16
sS'property'
p17
NsbsS'op'
p18
S'receive'
p19
sS'type'
p20
S'channel'
p21
sS'to'
p22
I12
s.(dp0
S'queue'
p1
S'ReQ'
p2
sS'procId'
p3
I12
sS'message'
p4
ccopy_reg
_reconstructor
p5
(cMessage
RequestMessage
p6
c__builtin__
object
p7
Ntp8
Rp9
(dp10
S'sender'
p11
I7
sS'bb'
p12
I00
sS'receiver'
p13
I12
sS'content'
p14
NsS'num'
p15
I45
sS'messageId'
p16
I28
sS'createdTime'
p17
S'2014-09-01 09:36:30'
p18
sS'property'
p19
NsbsS'type'
p20
S'process'
p21
sS'op'
p22
S'push'
p23
s.(dp0
S'queue'
p1
S'ReqQ'
p2
sS'procId'
p3
I12
sS'message'
p4
ccopy_reg
_reconstructor
p5
(cMessage
RequestMessage
p6
c__builtin__
object
p7
Ntp8
Rp9
(dp10
S'sender'
p11
I7
sS'bb'
p12
I00
sS'receiver'
p13
I12
sS'content'
p14
NsS'num'
p15
I45
sS'messageId'
p16
I28
sS'createdTime'
p17
S'2014-09-01 09:36:30'
p18
sS'property'
p19
NsbsS'type'
p20
S'process'
p21
sS'op'
p22
S'pop'
p23
s.(dp0
S'from'
p1
I3
sS'message'
p2
ccopy_reg
_reconstructor
p3
(cMessage
SegmentMessage
p4
c__builtin__
object
p5
Ntp6
Rp7
(dp8
S'sender'
p9
I3
sS'bb'
p10
I00
sS'receiver'
p11
I12
sS'content'
p12
NsS'num'
p13
I87
sS'messageId'
p14
I1
sS'createdTime'
p15
S'2014-09-01 09:36:29'
p16
sS'property'
p17
NsbsS'op'
p18
S'receive'
p19
sS'type'
p20
S'channel'
p21
sS'to'
p22
I12
s.(dp0
S'procId'
p1
I12
sS'type'
p2
S'process'
p3
sS'op'
p4
S'receivedSegments'
p5
s.(dp0
S'from'
p1
I5
sS'message'
p2
ccopy_reg
_reconstructor
p3
(cMessage
RequestMessage
p4
c__builtin__
object
p5
Ntp6
Rp7
(dp8
S'sender'
p9
I5
sS'bb'
p10
I00
sS'receiver'
p11
I12
sS'content'
p12
NsS'num'
p13
I29
sS'messageId'
p14
I13
sS'createdTime'
p15
S'2014-09-01 09:36:20'
p16
sS'property'
p17
NsbsS'op'
p18
S'receive'
p19
sS'type'
p20
S'channel'
p21
sS'to'
p22
I12
s.(dp0
S'queue'
p1
S'ReQ'
p2
sS'procId'
p3
I12
sS'message'
p4
ccopy_reg
_reconstructor
p5
(cMessage
RequestMessage
p6
c__builtin__
object
p7
Ntp8
Rp9
(dp10
S'sender'
p11
I5
sS'bb'
p12
I00
sS'receiver'
p13
I12
sS'content'
p14
NsS'num'
p15
I29
sS'messageId'
p16
I13
sS'createdTime'
p17
S'2014-09-01 09:36:20'
p18
sS'property'
p19
NsbsS'type'
p20
S'process'
p21
sS'op'
p22
S'push'
p23
s.(dp0
S'queue'
p1
S'ReqQ'
p2
sS'procId'
p3
I12
sS'message'
p4
ccopy_reg
_reconstructor
p5
(cMessage
RequestMessage
p6
c__builtin__
object
p7
Ntp8
Rp9
(dp10
S'sender'
p11
I5
sS'bb'
p12
I00
sS'receiver'
p13
I12
sS'content'
p14
NsS'num'
p15
I29
sS'messageId'
p16
I13
sS'createdTime'
p17
S'2014-09-01 09:36:20'
p18
sS'property'
p19
NsbsS'type'
p20
S'process'
p21
sS'op'
p22
S'pop'
p23
s.(dp0
S'from'
p1
I10
sS'message'
p2
ccopy_reg
_reconstructor
p3
(cMessage
RequestMessage
p4
c__builtin__
object
p5
Ntp6
Rp7
(dp8
S'sender'
p9
I10
sS'bb'
p10
I00
sS'receiver'
p11
I12
sS'content'
p12
NsS'num'
p13
I25
sS'messageId'
p14
I13
sS'createdTime'
p15
S'2014-09-01 09:36:27'
p16
sS'property'
p17
NsbsS'op'
p18
S'receive'
p19
sS'type'
p20
S'channel'
p21
sS'to'
p22
I12
s.(dp0
S'queue'
p1
S'ReQ'
p2
sS'procId'
p3
I12
sS'message'
p4
ccopy_reg
_reconstructor
p5
(cMessage
RequestMessage
p6
c__builtin__
object
p7
Ntp8
Rp9
(dp10
S'sender'
p11
I10
sS'bb'
p12
I00
sS'receiver'
p13
I12
sS'content'
p14
NsS'num'
p15
I25
sS'messageId'
p16
I13
sS'createdTime'
p17
S'2014-09-01 09:36:27'
p18
sS'property'
p19
NsbsS'type'
p20
S'process'
p21
sS'op'
p22
S'push'
p23
s.(dp0
S'from'
p1
I6
sS'message'
p2
ccopy_reg
_reconstructor
p3
(cMessage
AdvertisementMessage
p4
c__builtin__
object
p5
Ntp6
Rp7
(dp8
S'sender'
p9
I6
sS'bb'
p10
I00
sS'receiver'
p11
I12
sS'content'
p12
NsS'num'
p13
I67
sS'messageId'
p14
I8
sS'createdTime'
p15
S'2014-09-01 09:36:36'
p16
sS'property'
p17
NsbsS'op'
p18
S'receive'
p19
sS'type'
p20
S'channel'
p21
sS'to'
p22
I12
s.(dp0
S'from'
p1
I6
sS'message'
p2
ccopy_reg
_reconstructor
p3
(cMessage
RequestMessage
p4
c__builtin__
object
p5
Ntp6
Rp7
(dp8
S'sender'
p9
I12
sS'receiver'
p10
I6
sS'content'
p11
NsS'num'
p12
I65
sS'messageId'
p13
I8
sS'createdTime'
p14
S'2014-09-01 09:36:49'
p15
sS'property'
p16
NsbsS'op'
p17
S'send'
p18
sS'type'
p19
S'channel'
p20
sS'to'
p21
I12
s.(dp0
S'queue'
p1
S'ReqQ'
p2
sS'procId'
p3
I12
sS'message'
p4
ccopy_reg
_reconstructor
p5
(cMessage
RequestMessage
p6
c__builtin__
object
p7
Ntp8
Rp9
(dp10
S'sender'
p11
I10
sS'bb'
p12
I00
sS'receiver'
p13
I12
sS'content'
p14
NsS'num'
p15
I25
sS'messageId'
p16
I13
sS'createdTime'
p17
S'2014-09-01 09:36:27'
p18
sS'property'
p19
NsbsS'type'
p20
S'process'
p21
sS'op'
p22
S'pop'
p23
s.(dp0
S'from'
p1
I3
sS'message'
p2
ccopy_reg
_reconstructor
p3
(cMessage
AdvertisementMessage
p4
c__builtin__
object
p5
Ntp6
Rp7
(dp8
S'sender'
p9
I3
sS'bb'
p10
I00
sS'receiver'
p11
I12
sS'content'
p12
NsS'num'
p13
I101
sS'messageId'
p14
I18
sS'createdTime'
p15
S'2014-09-01 09:36:31'
p16
sS'property'
p17
NsbsS'op'
p18
S'receive'
p19
sS'type'
p20
S'channel'
p21
sS'to'
p22
I12
s.(dp0
S'from'
p1
I3
sS'message'
p2
ccopy_reg
_reconstructor
p3
(cMessage
RequestMessage
p4
c__builtin__
object
p5
Ntp6
Rp7
(dp8
S'sender'
p9
I12
sS'receiver'
p10
I3
sS'content'
p11
NsS'num'
p12
I67
sS'messageId'
p13
I18
sS'createdTime'
p14
S'2014-09-01 09:36:49'
p15
sS'property'
p16
NsbsS'op'
p17
S'send'
p18
sS'type'
p19
S'channel'
p20
sS'to'
p21
I12
s.(dp0
S'from'
p1
I6
sS'message'
p2
ccopy_reg
_reconstructor
p3
(cMessage
SegmentMessage
p4
c__builtin__
object
p5
Ntp6
Rp7
(dp8
S'sender'
p9
I6
sS'bb'
p10
I00
sS'receiver'
p11
I12
sS'content'
p12
NsS'num'
p13
I69
sS'messageId'
p14
I27
sS'createdTime'
p15
S'2014-09-01 09:36:36'
p16
sS'property'
p17
NsbsS'op'
p18
S'receive'
p19
sS'type'
p20
S'channel'
p21
sS'to'
p22
I12
s.(dp0
S'procId'
p1
I12
sS'type'
p2
S'process'
p3
sS'op'
p4
S'receivedSegments'
p5
s.(dp0
S'from'
p1
I3
sS'message'
p2
ccopy_reg
_reconstructor
p3
(cMessage
RequestMessage
p4
c__builtin__
object
p5
Ntp6
Rp7
(dp8
S'sender'
p9
I3
sS'bb'
p10
I00
sS'receiver'
p11
I12
sS'content'
p12
NsS'num'
p13
I104
sS'messageId'
p14
I13
sS'createdTime'
p15
S'2014-09-01 09:36:33'
p16
sS'property'
p17
NsbsS'op'
p18
S'receive'
p19
sS'type'
p20
S'channel'
p21
sS'to'
p22
I12
s.(dp0
S'queue'
p1
S'ReQ'
p2
sS'procId'
p3
I12
sS'message'
p4
ccopy_reg
_reconstructor
p5
(cMessage
RequestMessage
p6
c__builtin__
object
p7
Ntp8
Rp9
(dp10
S'sender'
p11
I3
sS'bb'
p12
I00
sS'receiver'
p13
I12
sS'content'
p14
NsS'num'
p15
I104
sS'messageId'
p16
I13
sS'createdTime'
p17
S'2014-09-01 09:36:33'
p18
sS'property'
p19
NsbsS'type'
p20
S'process'
p21
sS'op'
p22
S'push'
p23
s.(dp0
S'from'
p1
I8
sS'message'
p2
ccopy_reg
_reconstructor
p3
(cMessage
RequestMessage
p4
c__builtin__
object
p5
Ntp6
Rp7
(dp8
S'sender'
p9
I8
sS'bb'
p10
I00
sS'receiver'
p11
I12
sS'content'
p12
NsS'num'
p13
I41
sS'messageId'
p14
I28
sS'createdTime'
p15
S'2014-09-01 09:36:39'
p16
sS'property'
p17
NsbsS'op'
p18
S'receive'
p19
sS'type'
p20
S'channel'
p21
sS'to'
p22
I12
s.(dp0
S'queue'
p1
S'ReQ'
p2
sS'procId'
p3
I12
sS'message'
p4
ccopy_reg
_reconstructor
p5
(cMessage
RequestMessage
p6
c__builtin__
object
p7
Ntp8
Rp9
(dp10
S'sender'
p11
I8
sS'bb'
p12
I00
sS'receiver'
p13
I12
sS'content'
p14
NsS'num'
p15
I41
sS'messageId'
p16
I28
sS'createdTime'
p17
S'2014-09-01 09:36:39'
p18
sS'property'
p19
NsbsS'type'
p20
S'process'
p21
sS'op'
p22
S'push'
p23
s.(dp0
S'from'
p1
I1
sS'message'
p2
ccopy_reg
_reconstructor
p3
(cMessage
SegmentMessage
p4
c__builtin__
object
p5
Ntp6
Rp7
(dp8
S'sender'
p9
I1
sS'bb'
p10
I00
sS'receiver'
p11
I12
sS'content'
p12
NsS'num'
p13
I99
sS'messageId'
p14
I32
sS'createdTime'
p15
S'2014-09-01 09:36:37'
p16
sS'property'
p17
NsbsS'op'
p18
S'receive'
p19
sS'type'
p20
S'channel'
p21
sS'to'
p22
I12
s.(dp0
S'procId'
p1
I12
sS'type'
p2
S'process'
p3
sS'op'
p4
S'receivedSegments'
p5
s.(dp0
S'queue'
p1
S'ReqQ'
p2
sS'procId'
p3
I12
sS'message'
p4
ccopy_reg
_reconstructor
p5
(cMessage
RequestMessage
p6
c__builtin__
object
p7
Ntp8
Rp9
(dp10
S'sender'
p11
I3
sS'bb'
p12
I00
sS'receiver'
p13
I12
sS'content'
p14
NsS'num'
p15
I104
sS'messageId'
p16
I13
sS'createdTime'
p17
S'2014-09-01 09:36:33'
p18
sS'property'
p19
NsbsS'type'
p20
S'process'
p21
sS'op'
p22
S'pop'
p23
s.(dp0
S'from'
p1
I11
sS'message'
p2
ccopy_reg
_reconstructor
p3
(cMessage
RequestMessage
p4
c__builtin__
object
p5
Ntp6
Rp7
(dp8
S'sender'
p9
I11
sS'bb'
p10
I00
sS'receiver'
p11
I12
sS'content'
p12
NsS'num'
p13
I47
sS'messageId'
p14
I13
sS'createdTime'
p15
S'2014-09-01 09:36:29'
p16
sS'property'
p17
NsbsS'op'
p18
S'receive'
p19
sS'type'
p20
S'channel'
p21
sS'to'
p22
I12
s.(dp0
S'queue'
p1
S'ReQ'
p2
sS'procId'
p3
I12
sS'message'
p4
ccopy_reg
_reconstructor
p5
(cMessage
RequestMessage
p6
c__builtin__
object
p7
Ntp8
Rp9
(dp10
S'sender'
p11
I11
sS'bb'
p12
I00
sS'receiver'
p13
I12
sS'content'
p14
NsS'num'
p15
I47
sS'messageId'
p16
I13
sS'createdTime'
p17
S'2014-09-01 09:36:29'
p18
sS'property'
p19
NsbsS'type'
p20
S'process'
p21
sS'op'
p22
S'push'
p23
s.(dp0
S'from'
p1
I3
sS'message'
p2
ccopy_reg
_reconstructor
p3
(cMessage
SegmentMessage
p4
c__builtin__
object
p5
Ntp6
Rp7
(dp8
S'sender'
p9
I3
sS'bb'
p10
I00
sS'receiver'
p11
I12
sS'content'
p12
NsS'num'
p13
I120
sS'messageId'
p14
I34
sS'createdTime'
p15
S'2014-09-01 09:36:45'
p16
sS'property'
p17
NsbsS'op'
p18
S'receive'
p19
sS'type'
p20
S'channel'
p21
sS'to'
p22
I12
s.(dp0
S'procId'
p1
I12
sS'type'
p2
S'process'
p3
sS'op'
p4
S'receivedSegments'
p5
s.(dp0
S'queue'
p1
S'ReqQ'
p2
sS'procId'
p3
I12
sS'message'
p4
ccopy_reg
_reconstructor
p5
(cMessage
RequestMessage
p6
c__builtin__
object
p7
Ntp8
Rp9
(dp10
S'sender'
p11
I8
sS'bb'
p12
I00
sS'receiver'
p13
I12
sS'content'
p14
NsS'num'
p15
I41
sS'messageId'
p16
I28
sS'createdTime'
p17
S'2014-09-01 09:36:39'
p18
sS'property'
p19
NsbsS'type'
p20
S'process'
p21
sS'op'
p22
S'pop'
p23
s.(dp0
S'from'
p1
I8
sS'message'
p2
ccopy_reg
_reconstructor
p3
(cMessage
SegmentMessage
p4
c__builtin__
object
p5
Ntp6
Rp7
(dp8
S'sender'
p9
I8
sS'bb'
p10
I00
sS'receiver'
p11
I12
sS'content'
p12
NsS'num'
p13
I49
sS'messageId'
p14
I38
sS'createdTime'
p15
S'2014-09-01 09:36:44'
p16
sS'property'
p17
NsbsS'op'
p18
S'receive'
p19
sS'type'
p20
S'channel'
p21
sS'to'
p22
I12
s.(dp0
S'procId'
p1
I12
sS'type'
p2
S'process'
p3
sS'op'
p4
S'receivedSegments'
p5
s.(dp0
S'queue'
p1
S'ReqQ'
p2
sS'procId'
p3
I12
sS'message'
p4
ccopy_reg
_reconstructor
p5
(cMessage
RequestMessage
p6
c__builtin__
object
p7
Ntp8
Rp9
(dp10
S'sender'
p11
I11
sS'bb'
p12
I00
sS'receiver'
p13
I12
sS'content'
p14
NsS'num'
p15
I47
sS'messageId'
p16
I13
sS'createdTime'
p17
S'2014-09-01 09:36:29'
p18
sS'property'
p19
NsbsS'type'
p20
S'process'
p21
sS'op'
p22
S'pop'
p23
s.(dp0
S'from'
p1
I10
sS'message'
p2
ccopy_reg
_reconstructor
p3
(cMessage
RequestMessage
p4
c__builtin__
object
p5
Ntp6
Rp7
(dp8
S'sender'
p9
I10
sS'bb'
p10
I00
sS'receiver'
p11
I12
sS'content'
p12
NsS'num'
p13
I35
sS'messageId'
p14
I28
sS'createdTime'
p15
S'2014-09-01 09:36:34'
p16
sS'property'
p17
NsbsS'op'
p18
S'receive'
p19
sS'type'
p20
S'channel'
p21
sS'to'
p22
I12
s.(dp0
S'queue'
p1
S'ReQ'
p2
sS'procId'
p3
I12
sS'message'
p4
ccopy_reg
_reconstructor
p5
(cMessage
RequestMessage
p6
c__builtin__
object
p7
Ntp8
Rp9
(dp10
S'sender'
p11
I10
sS'bb'
p12
I00
sS'receiver'
p13
I12
sS'content'
p14
NsS'num'
p15
I35
sS'messageId'
p16
I28
sS'createdTime'
p17
S'2014-09-01 09:36:34'
p18
sS'property'
p19
NsbsS'type'
p20
S'process'
p21
sS'op'
p22
S'push'
p23
s.(dp0
S'queue'
p1
S'ReqQ'
p2
sS'procId'
p3
I12
sS'message'
p4
ccopy_reg
_reconstructor
p5
(cMessage
RequestMessage
p6
c__builtin__
object
p7
Ntp8
Rp9
(dp10
S'sender'
p11
I10
sS'bb'
p12
I00
sS'receiver'
p13
I12
sS'content'
p14
NsS'num'
p15
I35
sS'messageId'
p16
I28
sS'createdTime'
p17
S'2014-09-01 09:36:34'
p18
sS'property'
p19
NsbsS'type'
p20
S'process'
p21
sS'op'
p22
S'pop'
p23
s.(dp0
S'from'
p1
I10
sS'message'
p2
ccopy_reg
_reconstructor
p3
(cMessage
SegmentMessage
p4
c__builtin__
object
p5
Ntp6
Rp7
(dp8
S'sender'
p9
I10
sS'bb'
p10
I00
sS'receiver'
p11
I12
sS'content'
p12
NsS'num'
p13
I42
sS'messageId'
p14
I5
sS'createdTime'
p15
S'2014-09-01 09:36:43'
p16
sS'property'
p17
NsbsS'op'
p18
S'receive'
p19
sS'type'
p20
S'channel'
p21
sS'to'
p22
I12
s.(dp0
S'procId'
p1
I12
sS'type'
p2
S'process'
p3
sS'op'
p4
S'receivedSegments'
p5
s.(dp0
S'from'
p1
I9
sS'message'
p2
ccopy_reg
_reconstructor
p3
(cMessage
SegmentMessage
p4
c__builtin__
object
p5
Ntp6
Rp7
(dp8
S'sender'
p9
I9
sS'bb'
p10
I00
sS'receiver'
p11
I12
sS'content'
p12
NsS'num'
p13
I27
sS'messageId'
p14
I41
sS'createdTime'
p15
S'2014-09-01 09:36:21'
p16
sS'property'
p17
NsbsS'op'
p18
S'receive'
p19
sS'type'
p20
S'channel'
p21
sS'to'
p22
I12
s.(dp0
S'procId'
p1
I12
sS'type'
p2
S'process'
p3
sS'op'
p4
S'receivedSegments'
p5
s.(dp0
S'from'
p1
I11
sS'message'
p2
ccopy_reg
_reconstructor
p3
(cMessage
SegmentMessage
p4
c__builtin__
object
p5
Ntp6
Rp7
(dp8
S'sender'
p9
I11
sS'bb'
p10
I00
sS'receiver'
p11
I12
sS'content'
p12
NsS'num'
p13
I56
sS'messageId'
p14
I25
sS'createdTime'
p15
S'2014-09-01 09:36:35'
p16
sS'property'
p17
NsbsS'op'
p18
S'receive'
p19
sS'type'
p20
S'channel'
p21
sS'to'
p22
I12
s.(dp0
S'procId'
p1
I12
sS'type'
p2
S'process'
p3
sS'op'
p4
S'receivedSegments'
p5
s.(dp0
S'from'
p1
I6
sS'message'
p2
ccopy_reg
_reconstructor
p3
(cMessage
RequestMessage
p4
c__builtin__
object
p5
Ntp6
Rp7
(dp8
S'sender'
p9
I6
sS'bb'
p10
I00
sS'receiver'
p11
I12
sS'content'
p12
NsS'num'
p13
I72
sS'messageId'
p14
I28
sS'createdTime'
p15
S'2014-09-01 09:36:38'
p16
sS'property'
p17
NsbsS'op'
p18
S'receive'
p19
sS'type'
p20
S'channel'
p21
sS'to'
p22
I12
s.(dp0
S'queue'
p1
S'ReQ'
p2
sS'procId'
p3
I12
sS'message'
p4
ccopy_reg
_reconstructor
p5
(cMessage
RequestMessage
p6
c__builtin__
object
p7
Ntp8
Rp9
(dp10
S'sender'
p11
I6
sS'bb'
p12
I00
sS'receiver'
p13
I12
sS'content'
p14
NsS'num'
p15
I72
sS'messageId'
p16
I28
sS'createdTime'
p17
S'2014-09-01 09:36:38'
p18
sS'property'
p19
NsbsS'type'
p20
S'process'
p21
sS'op'
p22
S'push'
p23
s.(dp0
S'from'
p1
I0
sS'message'
p2
ccopy_reg
_reconstructor
p3
(cMessage
AdvertisementMessage
p4
c__builtin__
object
p5
Ntp6
Rp7
(dp8
S'sender'
p9
I0
sS'bb'
p10
I00
sS'receiver'
p11
I12
sS'content'
p12
NsS'num'
p13
I92
sS'messageId'
p14
I14
sS'createdTime'
p15
S'2014-09-01 09:36:27'
p16
sS'property'
p17
NsbsS'op'
p18
S'receive'
p19
sS'type'
p20
S'channel'
p21
sS'to'
p22
I12
s.(dp0
S'from'
p1
I0
sS'message'
p2
ccopy_reg
_reconstructor
p3
(cMessage
RequestMessage
p4
c__builtin__
object
p5
Ntp6
Rp7
(dp8
S'sender'
p9
I12
sS'receiver'
p10
I0
sS'content'
p11
NsS'num'
p12
I72
sS'messageId'
p13
I14
sS'createdTime'
p14
S'2014-09-01 09:36:58'
p15
sS'property'
p16
NsbsS'op'
p17
S'send'
p18
sS'type'
p19
S'channel'
p20
sS'to'
p21
I12
s.(dp0
S'from'
p1
I7
sS'message'
p2
ccopy_reg
_reconstructor
p3
(cMessage
AdvertisementMessage
p4
c__builtin__
object
p5
Ntp6
Rp7
(dp8
S'sender'
p9
I7
sS'bb'
p10
I00
sS'receiver'
p11
I12
sS'content'
p12
NsS'num'
p13
I62
sS'messageId'
p14
I33
sS'createdTime'
p15
S'2014-09-01 09:36:35'
p16
sS'property'
p17
NsbsS'op'
p18
S'receive'
p19
sS'type'
p20
S'channel'
p21
sS'to'
p22
I12
s.(dp0
S'from'
p1
I7
sS'message'
p2
ccopy_reg
_reconstructor
p3
(cMessage
RequestMessage
p4
c__builtin__
object
p5
Ntp6
Rp7
(dp8
S'sender'
p9
I12
sS'receiver'
p10
I7
sS'content'
p11
NsS'num'
p12
I73
sS'messageId'
p13
I33
sS'createdTime'
p14
S'2014-09-01 09:36:59'
p15
sS'property'
p16
NsbsS'op'
p17
S'send'
p18
sS'type'
p19
S'channel'
p20
sS'to'
p21
I12
s.(dp0
S'from'
p1
I1
sS'message'
p2
ccopy_reg
_reconstructor
p3
(cMessage
RequestMessage
p4
c__builtin__
object
p5
Ntp6
Rp7
(dp8
S'sender'
p9
I1
sS'bb'
p10
I00
sS'receiver'
p11
I12
sS'content'
p12
NsS'num'
p13
I102
sS'messageId'
p14
I28
sS'createdTime'
p15
S'2014-09-01 09:36:40'
p16
sS'property'
p17
NsbsS'op'
p18
S'receive'
p19
sS'type'
p20
S'channel'
p21
sS'to'
p22
I12
s.(dp0
S'queue'
p1
S'ReQ'
p2
sS'procId'
p3
I12
sS'message'
p4
ccopy_reg
_reconstructor
p5
(cMessage
RequestMessage
p6
c__builtin__
object
p7
Ntp8
Rp9
(dp10
S'sender'
p11
I1
sS'bb'
p12
I00
sS'receiver'
p13
I12
sS'content'
p14
NsS'num'
p15
I102
sS'messageId'
p16
I28
sS'createdTime'
p17
S'2014-09-01 09:36:40'
p18
sS'property'
p19
NsbsS'type'
p20
S'process'
p21
sS'op'
p22
S'push'
p23
s.(dp0
S'queue'
p1
S'ReqQ'
p2
sS'procId'
p3
I12
sS'message'
p4
ccopy_reg
_reconstructor
p5
(cMessage
RequestMessage
p6
c__builtin__
object
p7
Ntp8
Rp9
(dp10
S'sender'
p11
I6
sS'bb'
p12
I00
sS'receiver'
p13
I12
sS'content'
p14
NsS'num'
p15
I72
sS'messageId'
p16
I28
sS'createdTime'
p17
S'2014-09-01 09:36:38'
p18
sS'property'
p19
NsbsS'type'
p20
S'process'
p21
sS'op'
p22
S'pop'
p23
s.(dp0
S'queue'
p1
S'ReqQ'
p2
sS'procId'
p3
I12
sS'message'
p4
ccopy_reg
_reconstructor
p5
(cMessage
RequestMessage
p6
c__builtin__
object
p7
Ntp8
Rp9
(dp10
S'sender'
p11
I1
sS'bb'
p12
I00
sS'receiver'
p13
I12
sS'content'
p14
NsS'num'
p15
I102
sS'messageId'
p16
I28
sS'createdTime'
p17
S'2014-09-01 09:36:40'
p18
sS'property'
p19
NsbsS'type'
p20
S'process'
p21
sS'op'
p22
S'pop'
p23
s.(dp0
S'from'
p1
I5
sS'message'
p2
ccopy_reg
_reconstructor
p3
(cMessage
AdvertisementMessage
p4
c__builtin__
object
p5
Ntp6
Rp7
(dp8
S'sender'
p9
I5
sS'bb'
p10
I00
sS'receiver'
p11
I12
sS'content'
p12
NsS'num'
p13
I45
sS'messageId'
p14
I10
sS'createdTime'
p15
S'2014-09-01 09:36:22'
p16
sS'property'
p17
NsbsS'op'
p18
S'receive'
p19
sS'type'
p20
S'channel'
p21
sS'to'
p22
I12
s.(dp0
S'from'
p1
I5
sS'message'
p2
ccopy_reg
_reconstructor
p3
(cMessage
RequestMessage
p4
c__builtin__
object
p5
Ntp6
Rp7
(dp8
S'sender'
p9
I12
sS'receiver'
p10
I5
sS'content'
p11
NsS'num'
p12
I76
sS'messageId'
p13
I10
sS'createdTime'
p14
S'2014-09-01 09:37:01'
p15
sS'property'
p16
NsbsS'op'
p17
S'send'
p18
sS'type'
p19
S'channel'
p20
sS'to'
p21
I12
s.(dp0
S'from'
p1
I5
sS'message'
p2
ccopy_reg
_reconstructor
p3
(cMessage
RequestMessage
p4
c__builtin__
object
p5
Ntp6
Rp7
(dp8
S'sender'
p9
I5
sS'bb'
p10
I00
sS'receiver'
p11
I12
sS'content'
p12
NsS'num'
p13
I61
sS'messageId'
p14
I28
sS'createdTime'
p15
S'2014-09-01 09:36:29'
p16
sS'property'
p17
NsbsS'op'
p18
S'receive'
p19
sS'type'
p20
S'channel'
p21
sS'to'
p22
I12
s.(dp0
S'queue'
p1
S'ReQ'
p2
sS'procId'
p3
I12
sS'message'
p4
ccopy_reg
_reconstructor
p5
(cMessage
RequestMessage
p6
c__builtin__
object
p7
Ntp8
Rp9
(dp10
S'sender'
p11
I5
sS'bb'
p12
I00
sS'receiver'
p13
I12
sS'content'
p14
NsS'num'
p15
I61
sS'messageId'
p16
I28
sS'createdTime'
p17
S'2014-09-01 09:36:29'
p18
sS'property'
p19
NsbsS'type'
p20
S'process'
p21
sS'op'
p22
S'push'
p23
s.(dp0
S'from'
p1
I0
sS'message'
p2
ccopy_reg
_reconstructor
p3
(cMessage
RequestMessage
p4
c__builtin__
object
p5
Ntp6
Rp7
(dp8
S'sender'
p9
I0
sS'bb'
p10
I00
sS'receiver'
p11
I12
sS'content'
p12
NsS'num'
p13
I94
sS'messageId'
p14
I13
sS'createdTime'
p15
S'2014-09-01 09:36:28'
p16
sS'property'
p17
NsbsS'op'
p18
S'receive'
p19
sS'type'
p20
S'channel'
p21
sS'to'
p22
I12
s.(dp0
S'queue'
p1
S'ReQ'
p2
sS'procId'
p3
I12
sS'message'
p4
ccopy_reg
_reconstructor
p5
(cMessage
RequestMessage
p6
c__builtin__
object
p7
Ntp8
Rp9
(dp10
S'sender'
p11
I0
sS'bb'
p12
I00
sS'receiver'
p13
I12
sS'content'
p14
NsS'num'
p15
I94
sS'messageId'
p16
I13
sS'createdTime'
p17
S'2014-09-01 09:36:28'
p18
sS'property'
p19
NsbsS'type'
p20
S'process'
p21
sS'op'
p22
S'push'
p23
s.(dp0
S'queue'
p1
S'ReqQ'
p2
sS'procId'
p3
I12
sS'message'
p4
ccopy_reg
_reconstructor
p5
(cMessage
RequestMessage
p6
c__builtin__
object
p7
Ntp8
Rp9
(dp10
S'sender'
p11
I5
sS'bb'
p12
I00
sS'receiver'
p13
I12
sS'content'
p14
NsS'num'
p15
I61
sS'messageId'
p16
I28
sS'createdTime'
p17
S'2014-09-01 09:36:29'
p18
sS'property'
p19
NsbsS'type'
p20
S'process'
p21
sS'op'
p22
S'pop'
p23
s.(dp0
S'from'
p1
I6
sS'message'
p2
ccopy_reg
_reconstructor
p3
(cMessage
SegmentMessage
p4
c__builtin__
object
p5
Ntp6
Rp7
(dp8
S'sender'
p9
I6
sS'bb'
p10
I00
sS'receiver'
p11
I12
sS'content'
p12
NsS'num'
p13
I74
sS'messageId'
p14
I19
sS'createdTime'
p15
S'2014-09-01 09:36:43'
p16
sS'property'
p17
NsbsS'op'
p18
S'receive'
p19
sS'type'
p20
S'channel'
p21
sS'to'
p22
I12
s.(dp0
S'procId'
p1
I12
sS'type'
p2
S'process'
p3
sS'op'
p4
S'receivedSegments'
p5
s.(dp0
S'from'
p1
I5
sS'message'
p2
ccopy_reg
_reconstructor
p3
(cMessage
AdvertisementMessage
p4
c__builtin__
object
p5
Ntp6
Rp7
(dp8
S'sender'
p9
I5
sS'bb'
p10
I00
sS'receiver'
p11
I12
sS'content'
p12
NsS'num'
p13
I74
sS'messageId'
p14
I20
sS'createdTime'
p15
S'2014-09-01 09:36:29'
p16
sS'property'
p17
NsbsS'op'
p18
S'receive'
p19
sS'type'
p20
S'channel'
p21
sS'to'
p22
I12
s.(dp0
S'from'
p1
I5
sS'message'
p2
ccopy_reg
_reconstructor
p3
(cMessage
RequestMessage
p4
c__builtin__
object
p5
Ntp6
Rp7
(dp8
S'sender'
p9
I12
sS'receiver'
p10
I5
sS'content'
p11
NsS'num'
p12
I78
sS'messageId'
p13
I20
sS'createdTime'
p14
S'2014-09-01 09:37:03'
p15
sS'property'
p16
NsbsS'op'
p17
S'send'
p18
sS'type'
p19
S'channel'
p20
sS'to'
p21
I12
s.(dp0
S'from'
p1
I9
sS'message'
p2
ccopy_reg
_reconstructor
p3
(cMessage
RequestMessage
p4
c__builtin__
object
p5
Ntp6
Rp7
(dp8
S'sender'
p9
I9
sS'bb'
p10
I00
sS'receiver'
p11
I12
sS'content'
p12
NsS'num'
p13
I28
sS'messageId'
p14
I13
sS'createdTime'
p15
S'2014-09-01 09:36:21'
p16
sS'property'
p17
NsbsS'op'
p18
S'receive'
p19
sS'type'
p20
S'channel'
p21
sS'to'
p22
I12
s.(dp0
S'queue'
p1
S'ReQ'
p2
sS'procId'
p3
I12
sS'message'
p4
ccopy_reg
_reconstructor
p5
(cMessage
RequestMessage
p6
c__builtin__
object
p7
Ntp8
Rp9
(dp10
S'sender'
p11
I9
sS'bb'
p12
I00
sS'receiver'
p13
I12
sS'content'
p14
NsS'num'
p15
I28
sS'messageId'
p16
I13
sS'createdTime'
p17
S'2014-09-01 09:36:21'
p18
sS'property'
p19
NsbsS'type'
p20
S'process'
p21
sS'op'
p22
S'push'
p23
s.(dp0
S'from'
p1
I0
sS'message'
p2
ccopy_reg
_reconstructor
p3
(cMessage
SegmentMessage
p4
c__builtin__
object
p5
Ntp6
Rp7
(dp8
S'sender'
p9
I0
sS'bb'
p10
I00
sS'receiver'
p11
I12
sS'content'
p12
NsS'num'
p13
I98
sS'messageId'
p14
I17
sS'createdTime'
p15
S'2014-09-01 09:36:29'
p16
sS'property'
p17
NsbsS'op'
p18
S'receive'
p19
sS'type'
p20
S'channel'
p21
sS'to'
p22
I12
s.(dp0
S'procId'
p1
I12
sS'type'
p2
S'process'
p3
sS'op'
p4
S'receivedSegments'
p5
s.(dp0
S'queue'
p1
S'ReqQ'
p2
sS'procId'
p3
I12
sS'message'
p4
ccopy_reg
_reconstructor
p5
(cMessage
RequestMessage
p6
c__builtin__
object
p7
Ntp8
Rp9
(dp10
S'sender'
p11
I0
sS'bb'
p12
I00
sS'receiver'
p13
I12
sS'content'
p14
NsS'num'
p15
I94
sS'messageId'
p16
I13
sS'createdTime'
p17
S'2014-09-01 09:36:28'
p18
sS'property'
p19
NsbsS'type'
p20
S'process'
p21
sS'op'
p22
S'pop'
p23
s.(dp0
S'from'
p1
I11
sS'message'
p2
ccopy_reg
_reconstructor
p3
(cMessage
RequestMessage
p4
c__builtin__
object
p5
Ntp6
Rp7
(dp8
S'sender'
p9
I11
sS'bb'
p10
I00
sS'receiver'
p11
I12
sS'content'
p12
NsS'num'
p13
I58
sS'messageId'
p14
I28
sS'createdTime'
p15
S'2014-09-01 09:36:36'
p16
sS'property'
p17
NsbsS'op'
p18
S'receive'
p19
sS'type'
p20
S'channel'
p21
sS'to'
p22
I12
s.(dp0
S'queue'
p1
S'ReQ'
p2
sS'procId'
p3
I12
sS'message'
p4
ccopy_reg
_reconstructor
p5
(cMessage
RequestMessage
p6
c__builtin__
object
p7
Ntp8
Rp9
(dp10
S'sender'
p11
I11
sS'bb'
p12
I00
sS'receiver'
p13
I12
sS'content'
p14
NsS'num'
p15
I58
sS'messageId'
p16
I28
sS'createdTime'
p17
S'2014-09-01 09:36:36'
p18
sS'property'
p19
NsbsS'type'
p20
S'process'
p21
sS'op'
p22
S'push'
p23
s.(dp0
S'from'
p1
I5
sS'message'
p2
ccopy_reg
_reconstructor
p3
(cMessage
SegmentMessage
p4
c__builtin__
object
p5
Ntp6
Rp7
(dp8
S'sender'
p9
I5
sS'bb'
p10
I00
sS'receiver'
p11
I12
sS'content'
p12
NsS'num'
p13
I104
sS'messageId'
p14
I10
sS'createdTime'
p15
S'2014-09-01 09:37:02'
p16
sS'property'
p17
NsbsS'op'
p18
S'receive'
p19
sS'type'
p20
S'channel'
p21
sS'to'
p22
I12
s.(dp0
S'procId'
p1
I12
sS'type'
p2
S'process'
p3
sS'op'
p4
S'receivedSegments'
p5
s.(dp0
S'from'
p1
I2
sS'message'
p2
ccopy_reg
_reconstructor
p3
(cMessage
SegmentMessage
p4
c__builtin__
object
p5
Ntp6
Rp7
(dp8
S'sender'
p9
I2
sS'bb'
p10
I00
sS'receiver'
p11
I12
sS'content'
p12
NsS'num'
p13
I73
sS'messageId'
p14
I37
sS'createdTime'
p15
S'2014-09-01 09:36:38'
p16
sS'property'
p17
NsbsS'op'
p18
S'receive'
p19
sS'type'
p20
S'channel'
p21
sS'to'
p22
I12
s.(dp0
S'procId'
p1
I12
sS'type'
p2
S'process'
p3
sS'op'
p4
S'receivedSegments'
p5
s.(dp0
S'from'
p1
I11
sS'message'
p2
ccopy_reg
_reconstructor
p3
(cMessage
SegmentMessage
p4
c__builtin__
object
p5
Ntp6
Rp7
(dp8
S'sender'
p9
I11
sS'bb'
p10
I00
sS'receiver'
p11
I12
sS'content'
p12
NsS'num'
p13
I71
sS'messageId'
p14
I22
sS'createdTime'
p15
S'2014-09-01 09:36:51'
p16
sS'property'
p17
NsbsS'op'
p18
S'receive'
p19
sS'type'
p20
S'channel'
p21
sS'to'
p22
I12
s.(dp0
S'procId'
p1
I12
sS'type'
p2
S'process'
p3
sS'op'
p4
S'receivedSegments'
p5
s.(dp0
S'queue'
p1
S'ReqQ'
p2
sS'procId'
p3
I12
sS'message'
p4
ccopy_reg
_reconstructor
p5
(cMessage
RequestMessage
p6
c__builtin__
object
p7
Ntp8
Rp9
(dp10
S'sender'
p11
I9
sS'bb'
p12
I00
sS'receiver'
p13
I12
sS'content'
p14
NsS'num'
p15
I28
sS'messageId'
p16
I13
sS'createdTime'
p17
S'2014-09-01 09:36:21'
p18
sS'property'
p19
NsbsS'type'
p20
S'process'
p21
sS'op'
p22
S'pop'
p23
s.(dp0
S'from'
p1
I11
sS'message'
p2
ccopy_reg
_reconstructor
p3
(cMessage
AdvertisementMessage
p4
c__builtin__
object
p5
Ntp6
Rp7
(dp8
S'sender'
p9
I11
sS'bb'
p10
I00
sS'receiver'
p11
I12
sS'content'
p12
NsS'num'
p13
I90
sS'messageId'
p14
I36
sS'createdTime'
p15
S'2014-09-01 09:37:02'
p16
sS'property'
p17
NsbsS'op'
p18
S'receive'
p19
sS'type'
p20
S'channel'
p21
sS'to'
p22
I12
s.(dp0
S'from'
p1
I11
sS'message'
p2
ccopy_reg
_reconstructor
p3
(cMessage
RequestMessage
p4
c__builtin__
object
p5
Ntp6
Rp7
(dp8
S'sender'
p9
I12
sS'receiver'
p10
I11
sS'content'
p11
NsS'num'
p12
I81
sS'messageId'
p13
I36
sS'createdTime'
p14
S'2014-09-01 09:37:06'
p15
sS'property'
p16
NsbsS'op'
p17
S'send'
p18
sS'type'
p19
S'channel'
p20
sS'to'
p21
I12
s.(dp0
S'queue'
p1
S'ReqQ'
p2
sS'procId'
p3
I12
sS'message'
p4
ccopy_reg
_reconstructor
p5
(cMessage
RequestMessage
p6
c__builtin__
object
p7
Ntp8
Rp9
(dp10
S'sender'
p11
I11
sS'bb'
p12
I00
sS'receiver'
p13
I12
sS'content'
p14
NsS'num'
p15
I58
sS'messageId'
p16
I28
sS'createdTime'
p17
S'2014-09-01 09:36:36'
p18
sS'property'
p19
NsbsS'type'
p20
S'process'
p21
sS'op'
p22
S'pop'
p23
s.(dp0
S'from'
p1
I7
sS'message'
p2
ccopy_reg
_reconstructor
p3
(cMessage
SegmentMessage
p4
c__builtin__
object
p5
Ntp6
Rp7
(dp8
S'sender'
p9
I7
sS'bb'
p10
I00
sS'receiver'
p11
I12
sS'content'
p12
NsS'num'
p13
I100
sS'messageId'
p14
I33
sS'createdTime'
p15
S'2014-09-01 09:37:05'
p16
sS'property'
p17
NsbsS'op'
p18
S'receive'
p19
sS'type'
p20
S'channel'
p21
sS'to'
p22
I12
s.(dp0
S'procId'
p1
I12
sS'type'
p2
S'process'
p3
sS'op'
p4
S'receivedSegments'
p5
s.(dp0
S'from'
p1
I0
sS'message'
p2
ccopy_reg
_reconstructor
p3
(cMessage
SegmentMessage
p4
c__builtin__
object
p5
Ntp6
Rp7
(dp8
S'sender'
p9
I0
sS'bb'
p10
I00
sS'receiver'
p11
I12
sS'content'
p12
NsS'num'
p13
I106
sS'messageId'
p14
I21
sS'createdTime'
p15
S'2014-09-01 09:36:32'
p16
sS'property'
p17
NsbsS'op'
p18
S'receive'
p19
sS'type'
p20
S'channel'
p21
sS'to'
p22
I12
s.(dp0
S'procId'
p1
I12
sS'type'
p2
S'process'
p3
sS'op'
p4
S'receivedSegments'
p5
s.(dp0
S'from'
p1
I9
sS'message'
p2
ccopy_reg
_reconstructor
p3
(cMessage
AdvertisementMessage
p4
c__builtin__
object
p5
Ntp6
Rp7
(dp8
S'sender'
p9
I9
sS'bb'
p10
I00
sS'receiver'
p11
I12
sS'content'
p12
NsS'num'
p13
I49
sS'messageId'
p14
I26
sS'createdTime'
p15
S'2014-09-01 09:36:27'
p16
sS'property'
p17
NsbsS'op'
p18
S'receive'
p19
sS'type'
p20
S'channel'
p21
sS'to'
p22
I12
s.(dp0
S'from'
p1
I9
sS'message'
p2
ccopy_reg
_reconstructor
p3
(cMessage
RequestMessage
p4
c__builtin__
object
p5
Ntp6
Rp7
(dp8
S'sender'
p9
I12
sS'receiver'
p10
I9
sS'content'
p11
NsS'num'
p12
I83
sS'messageId'
p13
I26
sS'createdTime'
p14
S'2014-09-01 09:37:08'
p15
sS'property'
p16
NsbsS'op'
p17
S'send'
p18
sS'type'
p19
S'channel'
p20
sS'to'
p21
I12
s.(dp0
S'from'
p1
I2
sS'message'
p2
ccopy_reg
_reconstructor
p3
(cMessage
SegmentMessage
p4
c__builtin__
object
p5
Ntp6
Rp7
(dp8
S'sender'
p9
I2
sS'bb'
p10
I00
sS'receiver'
p11
I12
sS'content'
p12
NsS'num'
p13
I76
sS'messageId'
p14
I30
sS'createdTime'
p15
S'2014-09-01 09:36:40'
p16
sS'property'
p17
NsbsS'op'
p18
S'receive'
p19
sS'type'
p20
S'channel'
p21
sS'to'
p22
I12
s.(dp0
S'procId'
p1
I12
sS'type'
p2
S'process'
p3
sS'op'
p4
S'receivedSegments'
p5
s.(dp0
S'from'
p1
I5
sS'message'
p2
ccopy_reg
_reconstructor
p3
(cMessage
SegmentMessage
p4
c__builtin__
object
p5
Ntp6
Rp7
(dp8
S'sender'
p9
I5
sS'bb'
p10
I00
sS'receiver'
p11
I12
sS'content'
p12
NsS'num'
p13
I106
sS'messageId'
p14
I20
sS'createdTime'
p15
S'2014-09-01 09:37:05'
p16
sS'property'
p17
NsbsS'op'
p18
S'receive'
p19
sS'type'
p20
S'channel'
p21
sS'to'
p22
I12
s.(dp0
S'procId'
p1
I12
sS'type'
p2
S'process'
p3
sS'op'
p4
S'receivedSegments'
p5
s.(dp0
S'from'
p1
I9
sS'message'
p2
ccopy_reg
_reconstructor
p3
(cMessage
RequestMessage
p4
c__builtin__
object
p5
Ntp6
Rp7
(dp8
S'sender'
p9
I9
sS'bb'
p10
I00
sS'receiver'
p11
I12
sS'content'
p12
NsS'num'
p13
I68
sS'messageId'
p14
I28
sS'createdTime'
p15
S'2014-09-01 09:36:39'
p16
sS'property'
p17
NsbsS'op'
p18
S'receive'
p19
sS'type'
p20
S'channel'
p21
sS'to'
p22
I12
s.(dp0
S'queue'
p1
S'ReQ'
p2
sS'procId'
p3
I12
sS'message'
p4
ccopy_reg
_reconstructor
p5
(cMessage
RequestMessage
p6
c__builtin__
object
p7
Ntp8
Rp9
(dp10
S'sender'
p11
I9
sS'bb'
p12
I00
sS'receiver'
p13
I12
sS'content'
p14
NsS'num'
p15
I68
sS'messageId'
p16
I28
sS'createdTime'
p17
S'2014-09-01 09:36:39'
p18
sS'property'
p19
NsbsS'type'
p20
S'process'
p21
sS'op'
p22
S'push'
p23
s.(dp0
S'from'
p1
I3
sS'message'
p2
ccopy_reg
_reconstructor
p3
(cMessage
RequestMessage
p4
c__builtin__
object
p5
Ntp6
Rp7
(dp8
S'sender'
p9
I3
sS'bb'
p10
I00
sS'receiver'
p11
I12
sS'content'
p12
NsS'num'
p13
I127
sS'messageId'
p14
I28
sS'createdTime'
p15
S'2014-09-01 09:36:49'
p16
sS'property'
p17
NsbsS'op'
p18
S'receive'
p19
sS'type'
p20
S'channel'
p21
sS'to'
p22
I12
s.(dp0
S'queue'
p1
S'ReQ'
p2
sS'procId'
p3
I12
sS'message'
p4
ccopy_reg
_reconstructor
p5
(cMessage
RequestMessage
p6
c__builtin__
object
p7
Ntp8
Rp9
(dp10
S'sender'
p11
I3
sS'bb'
p12
I00
sS'receiver'
p13
I12
sS'content'
p14
NsS'num'
p15
I127
sS'messageId'
p16
I28
sS'createdTime'
p17
S'2014-09-01 09:36:49'
p18
sS'property'
p19
NsbsS'type'
p20
S'process'
p21
sS'op'
p22
S'push'
p23
s.(dp0
S'from'
p1
I0
sS'message'
p2
ccopy_reg
_reconstructor
p3
(cMessage
RequestMessage
p4
c__builtin__
object
p5
Ntp6
Rp7
(dp8
S'sender'
p9
I0
sS'bb'
p10
I00
sS'receiver'
p11
I12
sS'content'
p12
NsS'num'
p13
I110
sS'messageId'
p14
I28
sS'createdTime'
p15
S'2014-09-01 09:36:34'
p16
sS'property'
p17
NsbsS'op'
p18
S'receive'
p19
sS'type'
p20
S'channel'
p21
sS'to'
p22
I12
s.(dp0
S'queue'
p1
S'ReQ'
p2
sS'procId'
p3
I12
sS'message'
p4
ccopy_reg
_reconstructor
p5
(cMessage
RequestMessage
p6
c__builtin__
object
p7
Ntp8
Rp9
(dp10
S'sender'
p11
I0
sS'bb'
p12
I00
sS'receiver'
p13
I12
sS'content'
p14
NsS'num'
p15
I110
sS'messageId'
p16
I28
sS'createdTime'
p17
S'2014-09-01 09:36:34'
p18
sS'property'
p19
NsbsS'type'
p20
S'process'
p21
sS'op'
p22
S'push'
p23
s.(dp0
S'from'
p1
I4
sS'message'
p2
ccopy_reg
_reconstructor
p3
(cMessage
SegmentMessage
p4
c__builtin__
object
p5
Ntp6
Rp7
(dp8
S'sender'
p9
I4
sS'bb'
p10
I00
sS'receiver'
p11
I12
sS'content'
p12
NsS'num'
p13
I57
sS'messageId'
p14
I6
sS'createdTime'
p15
S'2014-09-01 09:36:24'
p16
sS'property'
p17
NsbsS'op'
p18
S'receive'
p19
sS'type'
p20
S'channel'
p21
sS'to'
p22
I12
s.(dp0
S'procId'
p1
I12
sS'type'
p2
S'process'
p3
sS'op'
p4
S'receivedSegments'
p5
s.(dp0
S'queue'
p1
S'ReqQ'
p2
sS'procId'
p3
I12
sS'message'
p4
ccopy_reg
_reconstructor
p5
(cMessage
RequestMessage
p6
c__builtin__
object
p7
Ntp8
Rp9
(dp10
S'sender'
p11
I9
sS'bb'
p12
I00
sS'receiver'
p13
I12
sS'content'
p14
NsS'num'
p15
I68
sS'messageId'
p16
I28
sS'createdTime'
p17
S'2014-09-01 09:36:39'
p18
sS'property'
p19
NsbsS'type'
p20
S'process'
p21
sS'op'
p22
S'pop'
p23
s.(dp0
S'queue'
p1
S'ReqQ'
p2
sS'procId'
p3
I12
sS'message'
p4
ccopy_reg
_reconstructor
p5
(cMessage
RequestMessage
p6
c__builtin__
object
p7
Ntp8
Rp9
(dp10
S'sender'
p11
I3
sS'bb'
p12
I00
sS'receiver'
p13
I12
sS'content'
p14
NsS'num'
p15
I127
sS'messageId'
p16
I28
sS'createdTime'
p17
S'2014-09-01 09:36:49'
p18
sS'property'
p19
NsbsS'type'
p20
S'process'
p21
sS'op'
p22
S'pop'
p23
s.(dp0
S'from'
p1
I6
sS'message'
p2
ccopy_reg
_reconstructor
p3
(cMessage
SegmentMessage
p4
c__builtin__
object
p5
Ntp6
Rp7
(dp8
S'sender'
p9
I6
sS'bb'
p10
I00
sS'receiver'
p11
I12
sS'content'
p12
NsS'num'
p13
I90
sS'messageId'
p14
I8
sS'createdTime'
p15
S'2014-09-01 09:36:58'
p16
sS'property'
p17
NsbsS'op'
p18
S'receive'
p19
sS'type'
p20
S'channel'
p21
sS'to'
p22
I12
s.(dp0
S'procId'
p1
I12
sS'type'
p2
S'process'
p3
sS'op'
p4
S'receivedSegments'
p5
s.(dp0
S'queue'
p1
S'ReqQ'
p2
sS'procId'
p3
I12
sS'message'
p4
ccopy_reg
_reconstructor
p5
(cMessage
RequestMessage
p6
c__builtin__
object
p7
Ntp8
Rp9
(dp10
S'sender'
p11
I0
sS'bb'
p12
I00
sS'receiver'
p13
I12
sS'content'
p14
NsS'num'
p15
I110
sS'messageId'
p16
I28
sS'createdTime'
p17
S'2014-09-01 09:36:34'
p18
sS'property'
p19
NsbsS'type'
p20
S'process'
p21
sS'op'
p22
S'pop'
p23
s.(dp0
S'from'
p1
I9
sS'message'
p2
ccopy_reg
_reconstructor
p3
(cMessage
SegmentMessage
p4
c__builtin__
object
p5
Ntp6
Rp7
(dp8
S'sender'
p9
I9
sS'bb'
p10
I00
sS'receiver'
p11
I12
sS'content'
p12
NsS'num'
p13
I90
sS'messageId'
p14
I26
sS'createdTime'
p15
S'2014-09-01 09:37:11'
p16
sS'property'
p17
NsbsS'op'
p18
S'receive'
p19
sS'type'
p20
S'channel'
p21
sS'to'
p22
I12
s.(dp0
S'procId'
p1
I12
sS'type'
p2
S'process'
p3
sS'op'
p4
S'receivedSegments'
p5
s.(dp0
S'from'
p1
I11
sS'message'
p2
ccopy_reg
_reconstructor
p3
(cMessage
SegmentMessage
p4
c__builtin__
object
p5
Ntp6
Rp7
(dp8
S'sender'
p9
I11
sS'bb'
p10
I00
sS'receiver'
p11
I12
sS'content'
p12
NsS'num'
p13
I96
sS'messageId'
p14
I36
sS'createdTime'
p15
S'2014-09-01 09:37:10'
p16
sS'property'
p17
NsbsS'op'
p18
S'receive'
p19
sS'type'
p20
S'channel'
p21
sS'to'
p22
I12
s.(dp0
S'procId'
p1
I12
sS'type'
p2
S'process'
p3
sS'op'
p4
S'receivedSegments'
p5
s.(dp0
S'from'
p1
I1
sS'message'
p2
ccopy_reg
_reconstructor
p3
(cMessage
SegmentMessage
p4
c__builtin__
object
p5
Ntp6
Rp7
(dp8
S'sender'
p9
I1
sS'bb'
p10
I00
sS'receiver'
p11
I12
sS'content'
p12
NsS'num'
p13
I123
sS'messageId'
p14
I9
sS'createdTime'
p15
S'2014-09-01 09:36:58'
p16
sS'property'
p17
NsbsS'op'
p18
S'receive'
p19
sS'type'
p20
S'channel'
p21
sS'to'
p22
I12
s.(dp0
S'procId'
p1
I12
sS'type'
p2
S'process'
p3
sS'op'
p4
S'receivedSegments'
p5
s.(dp0
S'from'
p1
I1
sS'message'
p2
ccopy_reg
_reconstructor
p3
(cMessage
SegmentMessage
p4
c__builtin__
object
p5
Ntp6
Rp7
(dp8
S'sender'
p9
I1
sS'bb'
p10
I00
sS'receiver'
p11
I12
sS'content'
p12
NsS'num'
p13
I136
sS'messageId'
p14
I39
sS'createdTime'
p15
S'2014-09-01 09:37:09'
p16
sS'property'
p17
NsbsS'op'
p18
S'receive'
p19
sS'type'
p20
S'channel'
p21
sS'to'
p22
I12
s.(dp0
S'procId'
p1
I12
sS'type'
p2
S'process'
p3
sS'op'
p4
S'receivedSegments'
p5
s.(dp0
S'from'
p1
I4
sS'message'
p2
ccopy_reg
_reconstructor
p3
(cMessage
RequestMessage
p4
c__builtin__
object
p5
Ntp6
Rp7
(dp8
S'sender'
p9
I4
sS'bb'
p10
I00
sS'receiver'
p11
I12
sS'content'
p12
NsS'num'
p13
I59
sS'messageId'
p14
I13
sS'createdTime'
p15
S'2014-09-01 09:36:26'
p16
sS'property'
p17
NsbsS'op'
p18
S'receive'
p19
sS'type'
p20
S'channel'
p21
sS'to'
p22
I12
s.(dp0
S'queue'
p1
S'ReQ'
p2
sS'procId'
p3
I12
sS'message'
p4
ccopy_reg
_reconstructor
p5
(cMessage
RequestMessage
p6
c__builtin__
object
p7
Ntp8
Rp9
(dp10
S'sender'
p11
I4
sS'bb'
p12
I00
sS'receiver'
p13
I12
sS'content'
p14
NsS'num'
p15
I59
sS'messageId'
p16
I13
sS'createdTime'
p17
S'2014-09-01 09:36:26'
p18
sS'property'
p19
NsbsS'type'
p20
S'process'
p21
sS'op'
p22
S'push'
p23
s.(dp0
S'from'
p1
I3
sS'message'
p2
ccopy_reg
_reconstructor
p3
(cMessage
SegmentMessage
p4
c__builtin__
object
p5
Ntp6
Rp7
(dp8
S'sender'
p9
I3
sS'bb'
p10
I00
sS'receiver'
p11
I12
sS'content'
p12
NsS'num'
p13
I140
sS'messageId'
p14
I7
sS'createdTime'
p15
S'2014-09-01 09:36:57'
p16
sS'property'
p17
NsbsS'op'
p18
S'receive'
p19
sS'type'
p20
S'channel'
p21
sS'to'
p22
I12
s.(dp0
S'procId'
p1
I12
sS'type'
p2
S'process'
p3
sS'op'
p4
S'receivedSegments'
p5
s.(dp0
S'queue'
p1
S'ReqQ'
p2
sS'procId'
p3
I12
sS'message'
p4
ccopy_reg
_reconstructor
p5
(cMessage
RequestMessage
p6
c__builtin__
object
p7
Ntp8
Rp9
(dp10
S'sender'
p11
I4
sS'bb'
p12
I00
sS'receiver'
p13
I12
sS'content'
p14
NsS'num'
p15
I59
sS'messageId'
p16
I13
sS'createdTime'
p17
S'2014-09-01 09:36:26'
p18
sS'property'
p19
NsbsS'type'
p20
S'process'
p21
sS'op'
p22
S'pop'
p23
s.(dp0
S'from'
p1
I3
sS'message'
p2
ccopy_reg
_reconstructor
p3
(cMessage
SegmentMessage
p4
c__builtin__
object
p5
Ntp6
Rp7
(dp8
S'sender'
p9
I3
sS'bb'
p10
I00
sS'receiver'
p11
I12
sS'content'
p12
NsS'num'
p13
I144
sS'messageId'
p14
I24
sS'createdTime'
p15
S'2014-09-01 09:37:01'
p16
sS'property'
p17
NsbsS'op'
p18
S'receive'
p19
sS'type'
p20
S'channel'
p21
sS'to'
p22
I12
s.(dp0
S'procId'
p1
I12
sS'type'
p2
S'process'
p3
sS'op'
p4
S'receivedSegments'
p5
s.(dp0
S'from'
p1
I4
sS'message'
p2
ccopy_reg
_reconstructor
p3
(cMessage
AdvertisementMessage
p4
c__builtin__
object
p5
Ntp6
Rp7
(dp8
S'sender'
p9
I4
sS'bb'
p10
I00
sS'receiver'
p11
I12
sS'content'
p12
NsS'num'
p13
I75
sS'messageId'
p14
I16
sS'createdTime'
p15
S'2014-09-01 09:36:28'
p16
sS'property'
p17
NsbsS'op'
p18
S'receive'
p19
sS'type'
p20
S'channel'
p21
sS'to'
p22
I12
s.(dp0
S'from'
p1
I4
sS'message'
p2
ccopy_reg
_reconstructor
p3
(cMessage
RequestMessage
p4
c__builtin__
object
p5
Ntp6
Rp7
(dp8
S'sender'
p9
I12
sS'receiver'
p10
I4
sS'content'
p11
NsS'num'
p12
I88
sS'messageId'
p13
I16
sS'createdTime'
p14
S'2014-09-01 09:37:15'
p15
sS'property'
p16
NsbsS'op'
p17
S'send'
p18
sS'type'
p19
S'channel'
p20
sS'to'
p21
I12
s.(dp0
S'from'
p1
I3
sS'message'
p2
ccopy_reg
_reconstructor
p3
(cMessage
SegmentMessage
p4
c__builtin__
object
p5
Ntp6
Rp7
(dp8
S'sender'
p9
I3
sS'bb'
p10
I00
sS'receiver'
p11
I12
sS'content'
p12
NsS'num'
p13
I152
sS'messageId'
p14
I18
sS'createdTime'
p15
S'2014-09-01 09:37:09'
p16
sS'property'
p17
NsbsS'op'
p18
S'receive'
p19
sS'type'
p20
S'channel'
p21
sS'to'
p22
I12
s.(dp0
S'procId'
p1
I12
sS'type'
p2
S'process'
p3
sS'op'
p4
S'receivedSegments'
p5
s.(dp0
S'from'
p1
I4
sS'message'
p2
ccopy_reg
_reconstructor
p3
(cMessage
AdvertisementMessage
p4
c__builtin__
object
p5
Ntp6
Rp7
(dp8
S'sender'
p9
I4
sS'bb'
p10
I00
sS'receiver'
p11
I12
sS'content'
p12
NsS'num'
p13
I87
sS'messageId'
p14
I11
sS'createdTime'
p15
S'2014-09-01 09:36:29'
p16
sS'property'
p17
NsbsS'op'
p18
S'receive'
p19
sS'type'
p20
S'channel'
p21
sS'to'
p22
I12
s.(dp0
S'from'
p1
I4
sS'message'
p2
ccopy_reg
_reconstructor
p3
(cMessage
RequestMessage
p4
c__builtin__
object
p5
Ntp6
Rp7
(dp8
S'sender'
p9
I12
sS'receiver'
p10
I4
sS'content'
p11
NsS'num'
p12
I89
sS'messageId'
p13
I11
sS'createdTime'
p14
S'2014-09-01 09:37:17'
p15
sS'property'
p16
NsbsS'op'
p17
S'send'
p18
sS'type'
p19
S'channel'
p20
sS'to'
p21
I12
s.(dp0
S'from'
p1
I0
sS'message'
p2
ccopy_reg
_reconstructor
p3
(cMessage
SegmentMessage
p4
c__builtin__
object
p5
Ntp6
Rp7
(dp8
S'sender'
p9
I0
sS'bb'
p10
I00
sS'receiver'
p11
I12
sS'content'
p12
NsS'num'
p13
I132
sS'messageId'
p14
I29
sS'createdTime'
p15
S'2014-09-01 09:36:48'
p16
sS'property'
p17
NsbsS'op'
p18
S'receive'
p19
sS'type'
p20
S'channel'
p21
sS'to'
p22
I12
s.(dp0
S'procId'
p1
I12
sS'type'
p2
S'process'
p3
sS'op'
p4
S'receivedSegments'
p5
s.(dp0
S'from'
p1
I0
sS'message'
p2
ccopy_reg
_reconstructor
p3
(cMessage
SegmentMessage
p4
c__builtin__
object
p5
Ntp6
Rp7
(dp8
S'sender'
p9
I0
sS'bb'
p10
I00
sS'receiver'
p11
I12
sS'content'
p12
NsS'num'
p13
I137
sS'messageId'
p14
I3
sS'createdTime'
p15
S'2014-09-01 09:36:49'
p16
sS'property'
p17
NsbsS'op'
p18
S'receive'
p19
sS'type'
p20
S'channel'
p21
sS'to'
p22
I12
s.(dp0
S'procId'
p1
I12
sS'type'
p2
S'process'
p3
sS'op'
p4
S'receivedSegments'
p5
s.(dp0
S'from'
p1
I4
sS'message'
p2
ccopy_reg
_reconstructor
p3
(cMessage
SegmentMessage
p4
c__builtin__
object
p5
Ntp6
Rp7
(dp8
S'sender'
p9
I4
sS'bb'
p10
I00
sS'receiver'
p11
I12
sS'content'
p12
NsS'num'
p13
I92
sS'messageId'
p14
I40
sS'createdTime'
p15
S'2014-09-01 09:36:34'
p16
sS'property'
p17
NsbsS'op'
p18
S'receive'
p19
sS'type'
p20
S'channel'
p21
sS'to'
p22
I12
s.(dp0
S'procId'
p1
I12
sS'type'
p2
S'process'
p3
sS'op'
p4
S'receivedSegments'
p5
s.(dp0
S'from'
p1
I4
sS'message'
p2
ccopy_reg
_reconstructor
p3
(cMessage
RequestMessage
p4
c__builtin__
object
p5
Ntp6
Rp7
(dp8
S'sender'
p9
I4
sS'bb'
p10
I00
sS'receiver'
p11
I12
sS'content'
p12
NsS'num'
p13
I97
sS'messageId'
p14
I28
sS'createdTime'
p15
S'2014-09-01 09:36:35'
p16
sS'property'
p17
NsbsS'op'
p18
S'receive'
p19
sS'type'
p20
S'channel'
p21
sS'to'
p22
I12
s.(dp0
S'queue'
p1
S'ReQ'
p2
sS'procId'
p3
I12
sS'message'
p4
ccopy_reg
_reconstructor
p5
(cMessage
RequestMessage
p6
c__builtin__
object
p7
Ntp8
Rp9
(dp10
S'sender'
p11
I4
sS'bb'
p12
I00
sS'receiver'
p13
I12
sS'content'
p14
NsS'num'
p15
I97
sS'messageId'
p16
I28
sS'createdTime'
p17
S'2014-09-01 09:36:35'
p18
sS'property'
p19
NsbsS'type'
p20
S'process'
p21
sS'op'
p22
S'push'
p23
s.(dp0
S'from'
p1
I0
sS'message'
p2
ccopy_reg
_reconstructor
p3
(cMessage
SegmentMessage
p4
c__builtin__
object
p5
Ntp6
Rp7
(dp8
S'sender'
p9
I0
sS'bb'
p10
I00
sS'receiver'
p11
I12
sS'content'
p12
NsS'num'
p13
I152
sS'messageId'
p14
I4
sS'createdTime'
p15
S'2014-09-01 09:36:57'
p16
sS'property'
p17
NsbsS'op'
p18
S'receive'
p19
sS'type'
p20
S'channel'
p21
sS'to'
p22
I12
s.(dp0
S'procId'
p1
I12
sS'type'
p2
S'process'
p3
sS'op'
p4
S'receivedSegments'
p5
s.(dp0
S'queue'
p1
S'ReqQ'
p2
sS'procId'
p3
I12
sS'message'
p4
ccopy_reg
_reconstructor
p5
(cMessage
RequestMessage
p6
c__builtin__
object
p7
Ntp8
Rp9
(dp10
S'sender'
p11
I4
sS'bb'
p12
I00
sS'receiver'
p13
I12
sS'content'
p14
NsS'num'
p15
I97
sS'messageId'
p16
I28
sS'createdTime'
p17
S'2014-09-01 09:36:35'
p18
sS'property'
p19
NsbsS'type'
p20
S'process'
p21
sS'op'
p22
S'pop'
p23
s.(dp0
S'from'
p1
I0
sS'message'
p2
ccopy_reg
_reconstructor
p3
(cMessage
SegmentMessage
p4
c__builtin__
object
p5
Ntp6
Rp7
(dp8
S'sender'
p9
I0
sS'bb'
p10
I00
sS'receiver'
p11
I12
sS'content'
p12
NsS'num'
p13
I170
sS'messageId'
p14
I14
sS'createdTime'
p15
S'2014-09-01 09:37:20'
p16
sS'property'
p17
NsbsS'op'
p18
S'receive'
p19
sS'type'
p20
S'channel'
p21
sS'to'
p22
I12
s.(dp0
S'procId'
p1
I12
sS'type'
p2
S'process'
p3
sS'op'
p4
S'receivedSegments'
p5
s.(dp0
S'from'
p1
I4
sS'message'
p2
ccopy_reg
_reconstructor
p3
(cMessage
SegmentMessage
p4
c__builtin__
object
p5
Ntp6
Rp7
(dp8
S'sender'
p9
I4
sS'bb'
p10
I00
sS'receiver'
p11
I12
sS'content'
p12
NsS'num'
p13
I135
sS'messageId'
p14
I31
sS'createdTime'
p15
S'2014-09-01 09:37:10'
p16
sS'property'
p17
NsbsS'op'
p18
S'receive'
p19
sS'type'
p20
S'channel'
p21
sS'to'
p22
I12
s.(dp0
S'procId'
p1
I12
sS'type'
p2
S'process'
p3
sS'op'
p4
S'receivedSegments'
p5
s.(dp0
S'from'
p1
I4
sS'message'
p2
ccopy_reg
_reconstructor
p3
(cMessage
SegmentMessage
p4
c__builtin__
object
p5
Ntp6
Rp7
(dp8
S'sender'
p9
I4
sS'bb'
p10
I00
sS'receiver'
p11
I12
sS'content'
p12
NsS'num'
p13
I145
sS'messageId'
p14
I16
sS'createdTime'
p15
S'2014-09-01 09:37:18'
p16
sS'property'
p17
NsbsS'op'
p18
S'receive'
p19
sS'type'
p20
S'channel'
p21
sS'to'
p22
I12
s.(dp0
S'procId'
p1
I12
sS'type'
p2
S'process'
p3
sS'op'
p4
S'receivedSegments'
p5
s.(dp0
S'from'
p1
I4
sS'message'
p2
ccopy_reg
_reconstructor
p3
(cMessage
SegmentMessage
p4
c__builtin__
object
p5
Ntp6
Rp7
(dp8
S'sender'
p9
I4
sS'bb'
p10
I00
sS'receiver'
p11
I12
sS'content'
p12
NsS'num'
p13
I152
sS'messageId'
p14
I11
sS'createdTime'
p15
S'2014-09-01 09:37:27'
p16
sS'property'
p17
NsbsS'op'
p18
S'receive'
p19
sS'type'
p20
S'channel'
p21
sS'to'
p22
I12
s.(dp0
S'procId'
p1
I12
sS'type'
p2
S'process'
p3
sS'op'
p4
S'receivedSegments'
p5
s.(dp0
S'procId'
p1
I12
sS'type'
p2
S'process'
p3
sS'op'
p4
S'completedDataDownloading'
p5
s.(dp0
S'procId'
p1
I12
sS'type'
p2
S'process'
p3
sS'op'
p4
S'Terminating'
p5
s.