(dp0
S'Message'
p1
I43
sS'procs'
p2
I2
s.(dp0
S'Message'
p1
I43
sS'procs'
p2
I3
s.(dp0
S'Message'
p1
I89
sS'procs'
p2
I3
s.(dp0
S'Message'
p1
I83
sS'procs'
p2
I3
s.(dp0
S'Message'
p1
I111
sS'procs'
p2
I4
s.(dp0
S'Message'
p1
I103
sS'procs'
p2
I4
s.(dp0
S'Message'
p1
I87
sS'procs'
p2
I4
s.(dp0
S'Message'
p1
I43
sS'procs'
p2
I4
s.(dp0
S'Message'
p1
I115
sS'procs'
p2
I5
s.(dp0
S'Message'
p1
I103
sS'procs'
p2
I5
s.(dp0
S'Message'
p1
I103
sS'procs'
p2
I5
s.(dp0
S'Message'
p1
I43
sS'procs'
p2
I5
s.(dp0
S'Message'
p1
I109
sS'procs'
p2
I5
s.(dp0
S'Message'
p1
I107
sS'procs'
p2
I6
s.(dp0
S'Message'
p1
I107
sS'procs'
p2
I6
s.(dp0
S'Message'
p1
I115
sS'procs'
p2
I6
s.(dp0
S'Message'
p1
I115
sS'procs'
p2
I6
s.(dp0
S'Message'
p1
I43
sS'procs'
p2
I6
s.(dp0
S'Message'
p1
I115
sS'procs'
p2
I6
s.(dp0
S'Message'
p1
I113
sS'procs'
p2
I7
s.(dp0
S'Message'
p1
I113
sS'procs'
p2
I7
s.(dp0
S'Message'
p1
I113
sS'procs'
p2
I7
s.(dp0
S'Message'
p1
I113
sS'procs'
p2
I7
s.(dp0
S'Message'
p1
I113
sS'procs'
p2
I7
s.(dp0
S'Message'
p1
I123
sS'procs'
p2
I7
s.(dp0
S'Message'
p1
I43
sS'procs'
p2
I7
s.(dp0
S'Message'
p1
I103
sS'procs'
p2
I8
s.(dp0
S'Message'
p1
I151
sS'procs'
p2
I8
s.(dp0
S'Message'
p1
I103
sS'procs'
p2
I8
s.(dp0
S'Message'
p1
I43
sS'procs'
p2
I8
s.(dp0
S'Message'
p1
I139
sS'procs'
p2
I8
s.(dp0
S'Message'
p1
I115
sS'procs'
p2
I8
s.(dp0
S'Message'
p1
I91
sS'procs'
p2
I8
s.(dp0
S'Message'
p1
I115
sS'procs'
p2
I8
s.(dp0
S'Message'
p1
I127
sS'procs'
p2
I9
s.(dp0
S'Message'
p1
I127
sS'procs'
p2
I9
s.(dp0
S'Message'
p1
I127
sS'procs'
p2
I9
s.(dp0
S'Message'
p1
I43
sS'procs'
p2
I9
s.(dp0
S'Message'
p1
I113
sS'procs'
p2
I9
s.(dp0
S'Message'
p1
I113
sS'procs'
p2
I9
s.(dp0
S'Message'
p1
I99
sS'procs'
p2
I9
s.(dp0
S'Message'
p1
I113
sS'procs'
p2
I9
s.(dp0
S'Message'
p1
I127
sS'procs'
p2
I9
s.(dp0
S'Message'
p1
I91
sS'procs'
p2
I10
s.(dp0
S'Message'
p1
I107
sS'procs'
p2
I10
s.(dp0
S'Message'
p1
I123
sS'procs'
p2
I10
s.(dp0
S'Message'
p1
I123
sS'procs'
p2
I10
s.(dp0
S'Message'
p1
I123
sS'procs'
p2
I10
s.(dp0
S'Message'
p1
I123
sS'procs'
p2
I10
s.(dp0
S'Message'
p1
I43
sS'procs'
p2
I10
s.(dp0
S'Message'
p1
I107
sS'procs'
p2
I10
s.(dp0
S'Message'
p1
I155
sS'procs'
p2
I10
s.(dp0
S'Message'
p1
I123
sS'procs'
p2
I10
s.(dp0
S'Message'
p1
I115
sS'procs'
p2
I11
s.(dp0
S'Message'
p1
I115
sS'procs'
p2
I11
s.(dp0
S'Message'
p1
I115
sS'procs'
p2
I11
s.(dp0
S'Message'
p1
I187
sS'procs'
p2
I11
s.(dp0
S'Message'
p1
I133
sS'procs'
p2
I11
s.(dp0
S'Message'
p1
I115
sS'procs'
p2
I11
s.(dp0
S'Message'
p1
I115
sS'procs'
p2
I11
s.(dp0
S'Message'
p1
I97
sS'procs'
p2
I11
s.(dp0
S'Message'
p1
I43
sS'procs'
p2
I11
s.(dp0
S'Message'
p1
I115
sS'procs'
p2
I11
s.(dp0
S'Message'
p1
I97
sS'procs'
p2
I11
s.(dp0
S'Message'
p1
I143
sS'procs'
p2
I12
s.(dp0
S'Message'
p1
I103
sS'procs'
p2
I12
s.(dp0
S'Message'
p1
I43
sS'procs'
p2
I12
s.(dp0
S'Message'
p1
I103
sS'procs'
p2
I12
s.(dp0
S'Message'
p1
I123
sS'procs'
p2
I12
s.(dp0
S'Message'
p1
I143
sS'procs'
p2
I12
s.(dp0
S'Message'
p1
I103
sS'procs'
p2
I12
s.(dp0
S'Message'
p1
I183
sS'procs'
p2
I12
s.(dp0
S'Message'
p1
I123
sS'procs'
p2
I12
s.(dp0
S'Message'
p1
I123
sS'procs'
p2
I12
s.(dp0
S'Message'
p1
I83
sS'procs'
p2
I12
s.(dp0
S'Message'
p1
I103
sS'procs'
p2
I12
s.(dp0
S'Message'
p1
I131
sS'procs'
p2
I13
s.(dp0
S'Message'
p1
I131
sS'procs'
p2
I13
s.(dp0
S'Message'
p1
I153
sS'procs'
p2
I13
s.(dp0
S'Message'
p1
I109
sS'procs'
p2
I13
s.(dp0
S'Message'
p1
I131
sS'procs'
p2
I13
s.(dp0
S'Message'
p1
I43
sS'procs'
p2
I13
s.(dp0
S'Message'
p1
I131
sS'procs'
p2
I13
s.(dp0
S'Message'
p1
I175
sS'procs'
p2
I13
s.(dp0
S'Message'
p1
I87
sS'procs'
p2
I13
s.(dp0
S'Message'
p1
I109
sS'procs'
p2
I13
s.(dp0
S'Message'
p1
I131
sS'procs'
p2
I13
s.(dp0
S'Message'
p1
I109
sS'procs'
p2
I13
s.(dp0
S'Message'
p1
I65
sS'procs'
p2
I13
s.(dp0
S'Message'
p1
I163
sS'procs'
p2
I14
s.(dp0
S'Message'
p1
I187
sS'procs'
p2
I14
s.(dp0
S'Message'
p1
I43
sS'procs'
p2
I14
s.(dp0
S'Message'
p1
I187
sS'procs'
p2
I14
s.(dp0
S'Message'
p1
I115
sS'procs'
p2
I14
s.(dp0
S'Message'
p1
I115
sS'procs'
p2
I14
s.(dp0
S'Message'
p1
I67
sS'procs'
p2
I14
s.(dp0
S'Message'
p1
I67
sS'procs'
p2
I14
s.(dp0
S'Message'
p1
I91
sS'procs'
p2
I14
s.(dp0
S'Message'
p1
I115
sS'procs'
p2
I14
s.(dp0
S'Message'
p1
I115
sS'procs'
p2
I14
s.(dp0
S'Message'
p1
I91
sS'procs'
p2
I14
s.(dp0
S'Message'
p1
I163
sS'procs'
p2
I14
s.(dp0
S'Message'
p1
I115
sS'procs'
p2
I14
s.(dp0
S'Message'
p1
I94
sS'procs'
p2
I5
s.(dp0
S'Message'
p1
I40
sS'procs'
p2
I5
s.(dp0
S'Message'
p1
I106
sS'procs'
p2
I5
s.(dp0
S'Message'
p1
I100
sS'procs'
p2
I5
s.(dp0
S'Message'
p1
I100
sS'procs'
p2
I5
s.(dp0
S'Message'
p1
I15
sS'procs'
p2
I2
s.(dp0
S'Message'
p1
I15
sS'procs'
p2
I2
s.(dp0
S'Message'
p1
I43
sS'procs'
p2
I2
s.(dp0
S'Message'
p1
I43
sS'procs'
p2
I2
s.(dp0
S'Message'
p1
I33
sS'procs'
p2
I3
s.(dp0
S'Message'
p1
I15
sS'procs'
p2
I3
s.(dp0
S'Message'
p1
I27
sS'procs'
p2
I3
s.(dp0
S'Message'
p1
I35
sS'procs'
p2
I4
s.(dp0
S'Message'
p1
I35
sS'procs'
p2
I4
s.(dp0
S'Message'
p1
I15
sS'procs'
p2
I4
s.(dp0
S'Message'
p1
I35
sS'procs'
p2
I4
s.(dp0
S'Message'
p1
I39
sS'procs'
p2
I5
s.(dp0
S'Message'
p1
I15
sS'procs'
p2
I5
s.(dp0
S'Message'
p1
I39
sS'procs'
p2
I5
s.(dp0
S'Message'
p1
I39
sS'procs'
p2
I5
s.(dp0
S'Message'
p1
I33
sS'procs'
p2
I5
s.(dp0
S'Message'
p1
I22
sS'procs'
p2
I4
s.(dp0
S'Message'
p1
I26
sS'procs'
p2
I4
s.(dp0
S'Message'
p1
I10
sS'procs'
p2
I4
s.(dp0
S'Message'
p1
I22
sS'procs'
p2
I4
s.(dp0
S'Message'
p1
I13
sS'procs'
p2
I4
s.(dp0
S'Message'
p1
I9
sS'procs'
p2
I4
s.(dp0
S'Message'
p1
I13
sS'procs'
p2
I4
s.(dp0
S'Message'
p1
I5
sS'procs'
p2
I4
s.(dp0
S'Message'
p1
I13
sS'procs'
p2
I4
s.(dp0
S'Message'
p1
I13
sS'procs'
p2
I4
s.(dp0
S'Message'
p1
I9
sS'procs'
p2
I4
s.(dp0
S'Message'
p1
I5
sS'procs'
p2
I4
s.